(dp1
I8357895
(lp2
I14732
aI189157
aI3359439
aI54611363
asI139273
(lp3
I12550
aI14040
aI32754
aI42976
aI73713
aI116241
aI116262
aI146933
aI179839
aI225535
aI245442
aI1272422
aI1311126
aI1793831
aI2947439
aI2992968
aI30529589
aI80773187
asI5060618
(lp4
I1879007
aI104153855
aI229491157
aI241641655
asI86155289
(lp5
I12550
aI12831
aI14497
aI14732
aI16192
aI16499
aI42976
aI51134
aI116241
aI123679
aI179839
aI199223
aI225535
aI231911
aI249964
aI282686
aI337343
aI413850
aI413970
aI424449
aI438694
aI551071
aI554168
aI643860
aI731729
aI786050
aI839311
aI1052361
aI1087337
aI1146964
aI1217215
aI1272422
aI1319342
aI1451228
aI1481171
aI1498011
aI1865623
aI2055373
aI2143119
aI2247153
aI2898571
aI2947439
aI3261098
aI3597496
aI5547440
aI7427344
aI19602998
aI20298303
aI30529589
asI26654
(lp6
I12550
aI12831
aI14040
aI29782
aI32754
aI33029
aI79422
aI103946
aI106147
aI116241
aI118018
aI121475
aI129139
aI146933
aI147016
aI154158
aI173743
aI242859
aI245072
aI245442
aI245580
aI252646
aI287793
aI310813
aI337343
aI368186
aI378992
aI402696
aI442348
aI574587
aI584044
aI667007
aI695408
aI731729
aI862884
aI1217215
aI1272422
aI1300876
aI1305219
aI1819216
aI1837352
aI1968451
aI2055373
aI2259672
aI2947439
aI8977680
aI30529589
aI38707353
asI9759749
(lp7
I208601
aI322822
aI503080
aI607539
aI1385115
aI2474780
aI3460023
aI3955597
aI9638849
aI32250015
asI3524644
(lp8
I568916
asI247857
(lp9
I307167
aI1001373
aI1035606
aI1864497
aI2829734
aI3395468
aI3425190
aI3822278
aI4739965
aI5929626
aI6113941
aI6202492
aI6445962
aI31335652
asI374836
(lp10
I16499
aI255731
aI347685
asI30529589
(lp11
I12550
aI12731
aI12831
aI14040
aI15680
aI16192
aI26654
aI29782
aI32754
aI33029
aI42976
aI116241
aI118018
aI131832
aI139273
aI146933
aI147016
aI179839
aI206998
aI219821
aI225535
aI227291
aI231222
aI245072
aI245442
aI246757
aI252123
aI255731
aI260361
aI272967
aI282686
aI287793
aI297987
aI337170
aI337343
aI346522
aI347685
aI347811
aI393833
aI393921
aI413850
aI427483
aI438694
aI444659
aI452034
aI469976
aI477753
aI506045
aI523317
aI554168
aI568916
aI580246
aI643860
aI667007
aI731729
aI751078
aI756843
aI786050
aI862812
aI957225
aI1087337
aI1146964
aI1217215
aI1272422
aI1290449
aI1319342
aI1486819
aI1581198
aI1600792
aI1602667
aI1669810
aI1790522
aI1819216
aI1859310
aI1862629
aI1920952
aI2129481
aI2259672
aI2363873
aI2451902
aI2566425
aI2947439
aI3261098
aI3441244
aI3944383
aI4183714
aI5298466
aI6761218
aI6894801
aI7294150
aI8057384
aI8741997
aI15364547
aI40360738
aI42166037
aI86155289
aI142069252
aI149287848
asI26673208
(lp12
I1879007
aI25352498
aI104153855
aI229491157
asI4896828
(lp13
I812530
aI1146964
aI2303136
aI3121728
asI282686
(lp14
I12550
aI12831
aI15680
aI16192
aI29782
aI42976
aI103946
aI107525
aI116241
aI118018
aI123679
aI131832
aI179839
aI206998
aI219821
aI231222
aI232516
aI245072
aI246757
aI246856
aI249964
aI252123
aI255731
aI260361
aI297987
aI337170
aI337343
aI347685
aI393833
aI402696
aI413970
aI424449
aI427483
aI442348
aI452034
aI469976
aI477753
aI554168
aI580246
aI620874
aI643860
aI667007
aI731729
aI751078
aI756843
aI786050
aI1087337
aI1146964
aI1217215
aI1272422
aI1300876
aI1311126
aI1486819
aI1602667
aI1669810
aI1859310
aI1862629
aI2044192
aI2129481
aI2259672
aI2274410
aI2947439
aI2992968
aI3261098
aI3441244
aI4436783
aI6894801
aI15364547
aI28495595
aI30529589
aI42166037
aI86155289
aI142069252
asI80773187
(lp15
I12550
aI16192
aI116241
aI139273
aI146933
aI227291
aI243998
aI260361
aI444659
aI476938
aI510265
aI667007
aI751078
aI786050
aI862812
aI913926
aI1014002
aI1057571
aI1089916
aI1217215
aI1234701
aI1311126
aI1319342
aI1412942
aI1449294
aI1451228
aI1575285
aI1581198
aI1600792
aI1602667
aI1669810
aI1762606
aI1843648
aI1865832
aI1920952
aI1971991
aI2274410
aI2363873
aI2451360
aI2550258
aI2556729
aI2992968
aI3128931
aI3859394
aI5298466
aI6096021
aI7294150
aI7848381
aI8057384
aI9593425
aI40360738
aI50415954
aI54412957
aI113169129
aI150275502
asI1146964
(lp16
I12550
aI12731
aI12831
aI14497
aI14732
aI16192
aI29782
aI34464
aI42976
aI107525
aI116241
aI131832
aI147016
aI179839
aI189157
aI191750
aI206998
aI219821
aI225535
aI231222
aI232516
aI243998
aI245442
aI246757
aI246856
aI249964
aI252123
aI252646
aI255731
aI282686
aI297987
aI337170
aI337343
aI393833
aI402696
aI424449
aI452034
aI477753
aI506045
aI574461
aI580246
aI620874
aI667007
aI731729
aI751078
aI756843
aI786050
aI812530
aI862812
aI1087337
aI1089916
aI1217215
aI1272422
aI1290449
aI1486819
aI1617387
aI1669810
aI1843648
aI1859310
aI1920952
aI1953271
aI1968451
aI2044192
aI2129481
aI2259672
aI2274410
aI2303136
aI2550258
aI2566425
aI2947439
aI3121728
aI3441244
aI3540368
aI4896828
aI5062292
aI5287258
aI5547440
aI6761218
aI6894801
aI7294150
aI8613619
aI11442505
aI12356227
aI12523295
aI14578337
aI15364547
aI20298303
aI26910255
aI28495595
aI30529589
aI40360738
aI42166037
aI43899980
aI86155289
aI114497061
aI142069252
aI150275502
aI201219244
asI225366
(lp17
I29782
aI79422
aI103946
aI121475
aI154158
aI172285
aI236988
aI245072
aI248792
aI442348
aI574587
aI695408
aI778728
aI1217215
aI2582958
aI2962653
aI3077968
aI3866434
aI4046086
aI5779753
aI5929626
aI6535013
aI8977680
aI9463224
aI11963952
aI18176768
aI25419650
aI31335652
aI38707353
aI41585603
aI56401130
aI89666302
aI148413161
asI1865832
(lp18
I246856
aI297987
aI393833
aI751078
aI786050
aI1272422
aI1290449
aI1311126
aI1319342
aI1600792
aI1602667
aI1723244
aI1862629
aI1920952
aI1968451
aI1980279
aI2363873
aI2992968
aI3859394
aI5298466
aI80773187
asI249964
(lp19
I12550
aI14497
aI51134
aI179839
aI199223
aI225535
aI231911
aI282686
aI368186
aI438694
aI491718
aI1014002
aI1052361
aI1146964
aI1217215
aI1451228
aI1481171
aI1498011
aI1865623
aI1984441
aI2247153
aI2566425
aI2898571
aI2947439
aI3261098
aI3597496
aI5547440
aI20298303
aI86155289
asI378992
(lp20
I12550
aI26654
aI29782
aI32754
aI33029
aI79422
aI103946
aI106147
aI118018
aI121475
aI129139
aI147016
aI154158
aI173743
aI232516
aI236988
aI245072
aI245442
aI251010
aI252646
aI287793
aI297987
aI368186
aI402696
aI413850
aI442348
aI574587
aI584044
aI667007
aI695408
aI862884
aI1217215
aI1305219
aI1790522
aI1819216
aI2259672
aI2451360
aI2451902
aI3467213
aI5062292
aI8977680
aI38707353
aI85716885
asI129139
(lp21
I7307
aI12550
aI26654
aI29782
aI33029
aI79422
aI103946
aI106147
aI116241
aI121475
aI129290
aI131832
aI147016
aI245072
aI245442
aI245580
aI246757
aI251010
aI368186
aI378992
aI427483
aI574587
aI584044
aI957225
aI3467213
aI8977680
aI38707353
asI2025599
(lp22
I116241
aI118018
aI146933
aI173743
aI347811
aI368186
aI953381
aI1057571
aI1234701
aI1793831
aI1980279
aI2026884
aI2208595
aI3128931
aI5287258
aI6096021
aI6854999
aI8057384
aI50415954
asI1581198
(lp23
I9852
aI12550
aI12831
aI16192
aI42976
aI54710
aI73713
aI116241
aI118018
aI123679
aI146933
aI163830
aI173743
aI179839
aI199223
aI227291
aI235795
aI297987
aI337170
aI347811
aI368186
aI427483
aI442348
aI452034
aI551071
aI662903
aI731729
aI751078
aI868346
aI1052361
aI1089916
aI1217215
aI1234701
aI1272422
aI1290449
aI1311126
aI1319342
aI1600792
aI1790522
aI1793831
aI1843648
aI1862629
aI1865623
aI1920952
aI1980279
aI2363873
aI2550258
aI2947439
aI2992968
aI3540368
aI5062292
aI5287258
aI5547440
aI6761218
aI8057384
aI8741997
aI9593425
aI11442505
aI18353899
aI30529589
aI54412957
aI80773187
aI85716885
aI144624416
asI47247
(lp24
I322822
aI503080
aI1719780
aI2474780
aI3460023
aI3955597
aI9638849
aI99281206
asI108689
(lp25
I12831
aI116241
aI232516
aI245442
aI245580
aI246856
aI252123
aI272967
aI297987
aI337170
aI347685
aI393833
aI477753
aI554168
aI574587
aI580246
aI643860
aI751078
aI2532888
aI3029664
aI5547440
aI6894801
aI28495595
asI206998
(lp26
I12550
aI12831
aI42976
aI116241
aI131832
aI179839
aI219821
aI245072
aI252123
aI255731
aI260361
aI282686
aI346522
aI347685
aI393921
aI444659
aI477753
aI580246
aI643860
aI862812
aI979749
aI1146964
aI1217215
aI1272422
aI1486819
aI1602667
aI1617387
aI1669810
aI2129481
aI30529589
asI16537
(lp27
I16192
aI368873
aI424449
aI506045
aI894912
aI1004731
aI1311126
aI1790522
aI1837352
aI1862629
aI1920952
aI5062292
asI413850
(lp28
I12550
aI14497
aI15680
aI16192
aI16499
aI42976
aI116241
aI118018
aI123679
aI199223
aI219821
aI231222
aI235795
aI252123
aI337170
aI378992
aI413970
aI424449
aI427483
aI438694
aI452034
aI477753
aI551071
aI554168
aI731729
aI839311
aI862884
aI1052361
aI1217215
aI1272422
aI1300876
aI1311126
aI1319342
aI1451228
aI1790522
aI1862629
aI1865623
aI2947439
aI30529589
aI86155289
asI551071
(lp29
I14497
aI15680
aI123679
aI199223
aI235795
aI368186
aI413850
aI424449
aI438694
aI491718
aI731729
aI839311
aI1217215
aI1319689
aI1581198
aI1862629
aI2055373
aI5547440
aI6761218
aI86155289
asI14497
(lp30
I7307
aI12550
aI14732
aI15680
aI16192
aI16499
aI32754
aI34464
aI53064
aI116241
aI123679
aI179839
aI184197
aI189157
aI191750
aI203663
aI243998
aI249964
aI252646
aI410023
aI413850
aI413970
aI424449
aI438694
aI551071
aI568916
aI574461
aI667007
aI731729
aI812530
aI839311
aI868346
aI913926
aI957225
aI979749
aI1014002
aI1089916
aI1146964
aI1290449
aI1569590
aI1602667
aI1617387
aI1859310
aI1920952
aI1953271
aI1968451
aI2014403
aI2303136
aI2550258
aI2566425
aI4650856
aI5547440
aI5764928
aI11442505
aI12523295
aI14578337
aI15364547
aI17549084
aI19602998
aI20298303
aI26910255
aI40360738
aI54611363
aI86155289
aI105420997
aI114497061
aI144624416
aI201219244
asI25891526
(lp31
I179839
aI1953271
aI2550258
aI4145607
aI5764928
aI11442505
aI12094098
aI144624416
asI24467145
(lp32
I243998
aI568916
aI667007
aI43899980
asI506045
(lp33
I12550
aI12831
aI15680
aI16537
aI42976
aI116241
aI131832
aI179839
aI255731
aI297987
aI337170
aI337343
aI347685
aI368873
aI452034
aI469976
aI554168
aI568916
aI574461
aI580246
aI643860
aI667007
aI751078
aI786050
aI1146964
aI1217215
aI1272422
aI1290449
aI1311126
aI1862629
aI2129481
aI2947439
aI2992968
aI3441244
aI4436783
aI5298466
aI8613619
aI8741997
aI15364547
aI20298303
aI30529589
aI142069252
asI105420997
(lp34
I14497
aI625596
aI1819685
aI20298303
asI491718
(lp35
I9852
aI146933
aI163830
aI199223
aI235795
aI249964
aI347811
aI368186
aI551071
aI596529
aI662903
aI1052361
aI1217215
aI1319689
aI1859310
aI1865623
aI85716885
asI7073994
(lp36
I12831
aI227291
aI1089916
aI1217215
aI1449294
aI1862629
aI2550258
aI3540368
aI3859394
aI4619115
aI5062292
aI5287258
aI5298466
aI5547440
aI7848381
aI8057384
aI8741997
aI11442505
asI40366287
(lp37
I4418533
aI33689348
aI55698338
asI1290449
(lp38
I12550
aI12831
aI14040
aI14497
aI14732
aI16192
aI42976
aI116241
aI118018
aI179839
aI189157
aI225535
aI347811
aI402696
aI427483
aI444659
aI452034
aI506045
aI731729
aI751078
aI812530
aI1089916
aI1146964
aI1272422
aI1311126
aI1319342
aI1581198
aI1600792
aI1617387
aI1790522
aI1843648
aI1859310
aI1862629
aI1865832
aI1920952
aI1953271
aI2129481
aI2363873
aI2550258
aI2557703
aI2992968
aI5287258
aI6894801
aI7294150
aI20298303
aI30529589
aI85716885
asI20203737
(lp39
I307167
aI3597496
aI4619115
aI4739965
aI5298466
aI5304613
asI252123
(lp40
I12550
aI12731
aI12831
aI16192
aI29782
aI42976
aI108689
aI116241
aI131832
aI146619
aI146933
aI179839
aI206998
aI219821
aI225535
aI232516
aI245072
aI245442
aI255731
aI260361
aI272967
aI282686
aI297987
aI337170
aI347685
aI393833
aI393921
aI413850
aI427483
aI452034
aI477753
aI523317
aI554168
aI580246
aI643860
aI751078
aI786050
aI1146964
aI1217215
aI1272422
aI1486819
aI2129481
aI2947439
aI4880714
aI6761218
aI15364547
aI30529589
asI6625501
(lp41
I26357
aI2179808
aI3610434
asI8541221
(lp42
I227291
aI297987
aI438694
aI452034
aI1305219
aI1569590
aI1617387
aI5969229
aI12094098
aI14578337
aI52762908
asI368873
(lp43
I12550
aI15680
aI16192
aI16499
aI16537
aI123679
aI203663
aI224954
aI243998
aI252646
aI424449
aI476938
aI506045
aI862812
aI862884
aI894912
aI957225
aI1004731
aI1052361
aI1057571
aI1217215
aI1300876
aI1311126
aI1790522
aI1837352
aI1862629
aI1865623
aI1920952
aI2363873
aI2947439
aI5547440
aI7294150
aI8741997
aI14909035
aI150275502
asI1014002
(lp44
I14497
aI16192
aI116241
aI118018
aI219821
aI224954
aI235795
aI243998
aI246757
aI249964
aI251010
aI260361
aI424449
aI476938
aI731729
aI786050
aI862812
aI913926
aI957225
aI1217215
aI1234701
aI1311126
aI1319342
aI1319689
aI1449294
aI1451228
aI1602667
aI1669810
aI2451360
aI2947439
aI3128931
aI5062292
aI5298466
aI5547440
aI8057384
aI9593425
aI54412957
aI80773187
aI150275502
asI756843
(lp45
I12550
aI15680
aI16192
aI16499
aI29782
aI42976
aI107525
aI116262
aI179839
aI219821
aI225535
aI227291
aI231222
aI232516
aI245072
aI246757
aI246856
aI255731
aI260361
aI272967
aI282686
aI297987
aI337170
aI337343
aI347685
aI393833
aI402696
aI427483
aI452034
aI469976
aI477753
aI523317
aI554168
aI580246
aI667007
aI751078
aI786050
aI862812
aI1087337
aI1146964
aI1217215
aI1272422
aI1451228
aI1602667
aI1669810
aI1793831
aI2044192
aI3128931
aI3441244
aI4183714
aI4436783
aI6894801
aI8613619
aI30529589
asI172285
(lp46
I225366
aI248792
aI778728
aI3077968
aI3822278
aI5779753
aI5929626
aI5973655
aI7263941
aI14929213
aI16946759
aI18176768
aI19841323
aI31335652
aI41585603
aI56401130
aI148413161
asI225535
(lp47
I12550
aI12731
aI12831
aI16192
aI16499
aI29782
aI42976
aI79422
aI106147
aI107525
aI116241
aI116262
aI123679
aI131832
aI139273
aI146933
aI179839
aI219821
aI231222
aI232516
aI243998
aI245072
aI245442
aI246856
aI249964
aI252123
aI255731
aI337170
aI337343
aI347685
aI368186
aI393833
aI393921
aI402696
aI427483
aI452034
aI469976
aI477753
aI554168
aI580246
aI620874
aI731729
aI751078
aI756843
aI786050
aI862884
aI957225
aI1087337
aI1089916
aI1146964
aI1217215
aI1272422
aI1290449
aI1413623
aI1486819
aI1602667
aI1669810
aI1862629
aI2044192
aI2055373
aI2129481
aI2532888
aI2947439
aI3441244
aI4436783
aI5062292
aI6894801
aI8613619
aI15364547
aI30529589
aI86155289
aI142069252
aI150275502
asI33029
(lp48
I7307
aI12550
aI14040
aI26654
aI29782
aI32754
aI79422
aI103946
aI106147
aI116241
aI118018
aI121226
aI121475
aI129139
aI147016
aI154158
aI173743
aI236988
aI242859
aI245072
aI245442
aI245580
aI246757
aI251010
aI252646
aI272967
aI287793
aI337170
aI337343
aI347685
aI347811
aI368186
aI378992
aI402696
aI442348
aI447828
aI574587
aI584044
aI662903
aI695408
aI751078
aI1217215
aI1305219
aI1669810
aI1819216
aI1953271
aI2259672
aI2451360
aI3467213
aI4880714
aI6761218
aI8977680
aI30529589
aI38707353
asI12550
(lp49
I9216
aI12731
aI12831
aI14040
aI14497
aI14732
aI15680
aI16192
aI16499
aI26654
aI29782
aI32754
aI33029
aI42976
aI51134
aI79422
aI95831
aI107525
aI116241
aI118018
aI121475
aI123679
aI129139
aI129290
aI131832
aI139273
aI146933
aI147016
aI154158
aI173743
aI174043
aI179839
aI203663
aI206998
aI219821
aI224954
aI225535
aI231222
aI231911
aI235795
aI236988
aI243998
aI245072
aI245442
aI245580
aI246757
aI246856
aI249964
aI251010
aI252123
aI252646
aI255731
aI260361
aI272967
aI281206
aI282686
aI297987
aI307167
aI337170
aI337343
aI346522
aI347685
aI347811
aI368186
aI368873
aI378992
aI393833
aI393921
aI402696
aI413850
aI424449
aI426989
aI427483
aI438694
aI442348
aI444659
aI447828
aI452034
aI456097
aI462843
aI469976
aI477753
aI506045
aI510265
aI554168
aI574461
aI574587
aI580246
aI584044
aI620874
aI643860
aI667007
aI695408
aI731729
aI751078
aI756843
aI786050
aI812530
aI862812
aI862884
aI894912
aI1004731
aI1052361
aI1087337
aI1089916
aI1146964
aI1217215
aI1234701
aI1272422
aI1290449
aI1300876
aI1305219
aI1308504
aI1311126
aI1319342
aI1412942
aI1481171
aI1486819
aI1498011
aI1581198
aI1600792
aI1602667
aI1669810
aI1723244
aI1790522
aI1793831
aI1819216
aI1837352
aI1843648
aI1859310
aI1862629
aI1865623
aI1920952
aI1971991
aI1984441
aI2044192
aI2129481
aI2143119
aI2247153
aI2249344
aI2259672
aI2274410
aI2363873
aI2451360
aI2451902
aI2532888
aI2557703
aI2566425
aI2898571
aI2947439
aI2992968
aI3077968
aI3261098
aI3331477
aI3441244
aI3467213
aI3540368
aI3597496
aI4183714
aI4619115
aI4880714
aI5062292
aI5287258
aI5298466
aI5547440
aI6761218
aI6894801
aI7294150
aI8613619
aI8977680
aI12325808
aI12523295
aI15364547
aI18353899
aI28495595
aI30529589
aI38707353
aI50415954
aI55088817
aI58634939
aI80773187
aI85716885
aI86155289
aI142069252
asI260361
(lp50
I12550
aI12731
aI16192
aI29782
aI42976
aI116241
aI116262
aI131832
aI146933
aI179839
aI206998
aI224954
aI231222
aI232516
aI243998
aI245072
aI245442
aI246757
aI246856
aI252123
aI255731
aI272967
aI282686
aI297987
aI337170
aI337343
aI347685
aI393921
aI452034
aI469976
aI476938
aI477753
aI510265
aI667007
aI756843
aI786050
aI862812
aI913926
aI1014002
aI1087337
aI1217215
aI1272422
aI1412942
aI1451228
aI1575285
aI1602667
aI1669810
aI1762606
aI1865623
aI1971991
aI2947439
aI3128931
aI3441244
aI3859394
aI4183714
aI5062292
aI5298466
aI15364547
aI30529589
aI80773187
aI142069252
aI150275502
asI129290
(lp51
I12550
aI29782
aI103946
aI106147
aI121475
aI129139
aI1790522
aI1837352
aI2557703
aI2566425
asI114497061
(lp52
I14497
aI189157
aI424449
aI1146964
aI1859310
aI1953271
aI1968451
aI2014403
aI12523295
aI201219244
asI413970
(lp53
I14497
aI16499
aI53064
aI118018
aI282686
aI413850
aI424449
aI438694
aI444659
aI731729
aI812530
aI913926
aI20298303
aI86155289
asI235795
(lp54
I9852
aI12550
aI73713
aI163830
aI347811
aI368186
aI413850
aI491718
aI551071
aI596529
aI731729
aI839311
aI868346
aI1014002
aI1217215
aI1234701
aI1581198
aI1980279
aI5547440
aI6761218
asI2566425
(lp55
I12550
aI12831
aI14497
aI16192
aI79422
aI118018
aI129290
aI131832
aI146933
aI179839
aI249964
aI346522
aI354643
aI368186
aI438694
aI442348
aI452034
aI477753
aI662903
aI812530
aI957225
aI1146964
aI2259672
aI2586102
aI3128931
aI3467213
aI6761218
aI30529589
aI55088817
asI52762908
(lp56
I227291
aI438694
aI596529
aI1305219
aI1617387
aI1968451
aI5969229
aI8541221
aI10497385
aI12094098
aI144624416
asI243998
(lp57
I12550
aI14497
aI14732
aI32754
aI34464
aI106147
aI116241
aI146933
aI199223
aI225535
aI246757
aI246856
aI260361
aI368186
aI368873
aI476938
aI510265
aI568916
aI667007
aI786050
aI812530
aI862812
aI862884
aI957225
aI1014002
aI1057571
aI1146964
aI1217215
aI1272422
aI1412942
aI1602667
aI1669810
aI1762606
aI1859310
aI1971991
aI2416465
aI2774961
aI3077968
aI3128931
aI4183714
aI5547440
aI5833180
aI8057384
aI8741997
aI11654103
aI24467145
aI43899980
aI80773187
aI150275502
asI2044192
(lp58
I12550
aI116241
aI131832
aI179839
aI225535
aI245072
aI245442
aI255731
aI282686
aI297987
aI393833
aI393921
aI477753
aI554168
aI580246
aI643860
aI756843
aI1087337
aI1146964
aI1217215
aI1272422
aI2947439
aI3441244
aI6894801
aI15364547
asI5298466
(lp59
I12550
aI16192
aI227291
aI231222
aI231911
aI260361
aI297987
aI307167
aI354643
aI476938
aI506045
aI1014002
aI1089916
aI1311126
aI1449294
aI1498011
aI1602667
aI1865832
aI1984441
aI2078363
aI2143119
aI2247153
aI2298006
aI2451360
aI2451902
aI2898571
aI2992968
aI3077968
aI3157005
aI3540368
aI3597496
aI4619115
aI4739965
aI5062292
aI5287258
aI5304613
aI6202492
aI6445962
aI7073994
aI8057384
aI8741997
aI9593425
aI11442505
aI20203737
aI30529589
aI40360738
aI54412957
aI80773187
aI113169129
aI150275502
asI5304613
(lp60
I248792
aI307167
aI961397
aI1498011
aI2451902
aI3077968
aI3157005
aI3597496
aI4046086
aI4619115
aI4739965
aI5298466
aI5779753
aI6202492
aI6445962
aI11963952
aI20203737
aI25419650
asI1837352
(lp61
I12550
aI16537
aI26654
aI129290
aI184197
aI281206
aI368873
aI1790522
aI1920952
asI5779753
(lp62
I77515
aI172285
aI225366
aI248792
aI307167
aI310813
aI778728
aI961397
aI1001373
aI1035606
aI2582958
aI3077968
aI3088296
aI3425190
aI3822278
aI3866434
aI4046086
aI4739965
aI5304613
aI5929626
aI6202492
aI6445962
aI25419650
aI31335652
aI54580398
asI19841323
(lp63
I172285
aI2962653
aI3077968
aI4046086
aI4417371
aI6535013
aI7263941
aI11963952
aI16946759
aI41585603
asI25352498
(lp64
I18890
aI1879007
aI3423846
aI4418533
aI7670954
aI26673208
aI104153855
aI229491157
asI99281206
(lp65
I47247
aI208601
aI322822
aI503080
aI607539
aI722176
aI1078218
aI1385115
aI2474780
aI3460023
aI3955597
aI9638849
aI32250015
aI102169150
aI133610926
aI162104584
aI184959418
asI510265
(lp66
I12550
aI146933
aI199223
aI224954
aI243998
aI260361
aI476938
aI667007
aI786050
aI862812
aI862884
aI957225
aI1057571
aI1412942
aI1602667
aI1669810
aI1762606
aI1859310
aI1971991
aI5833180
aI8057384
aI8741997
aI80773187
aI113169129
aI150275502
asI1968451
(lp67
I14497
aI14732
aI26654
aI29782
aI189157
aI252646
aI368186
aI424449
aI751078
aI812530
aI1146964
aI1305219
aI1311126
aI1617387
aI1865832
aI1920952
aI1953271
aI2259672
aI3121728
aI5969229
aI12094098
aI12523295
aI15364547
aI20298303
aI52762908
aI114497061
asI14732
(lp68
I12550
aI14497
aI34464
aI179839
aI189157
aI191750
aI243998
aI252646
aI424449
aI574461
aI596529
aI812530
aI979749
aI1146964
aI1290449
aI1617387
aI1790522
aI1859310
aI1920952
aI1953271
aI1968451
aI2055373
aI2303136
aI2550258
aI3121728
aI4650856
aI5547440
aI5764928
aI8357895
aI11442505
aI14578337
aI15364547
aI20298303
aI26910255
aI86155289
asI4880714
(lp69
I12550
aI29782
aI33029
aI118018
aI121226
aI147016
aI173743
aI245442
aI245580
aI252123
aI272967
aI354643
aI584044
aI695408
aI862884
aI868346
aI1057571
aI1305219
aI2026884
aI2451360
aI3467213
aI8977680
aI12325808
aI15364547
aI50415954
asI2275662
(lp70
I1819685
aI3302157
aI20298303
aI104426512
asI50415954
(lp71
I12550
aI12831
aI27592
aI32754
aI116241
aI118018
aI146933
aI173743
aI236988
aI438694
aI444659
aI447828
aI862884
aI868346
aI1057571
aI1234701
aI1272422
aI1413623
aI1486819
aI1669810
aI1793831
aI1920952
aI1980279
aI2025599
aI2026884
aI2451360
aI2557703
aI2947439
aI4880714
aI6854999
aI8977680
aI12094098
aI80773187
asI354643
(lp72
I15543
aI29782
aI118018
aI173743
aI231911
aI307167
aI444659
aI1057571
aI1498011
aI1920952
aI1980279
aI2078363
aI2247153
aI2298006
aI2451902
aI2566425
aI2898571
aI3261098
aI3597496
aI4619115
aI4880714
aI5287258
aI5298466
aI8977680
asI6854999
(lp73
I118018
aI173743
aI347811
aI444659
aI957225
aI1234701
aI1600792
aI1790522
aI1793831
aI1862629
aI1980279
aI2025599
aI2055373
aI2557703
aI3128931
aI6894801
aI50415954
asI584044
(lp74
I12550
aI26654
aI29782
aI33029
aI79422
aI103946
aI106147
aI118018
aI121475
aI129139
aI147016
aI173743
aI245442
aI245580
aI378992
aI442348
aI574587
aI1272422
aI1305219
aI2451360
aI3467213
aI4880714
aI8977680
aI38707353
asI2947439
(lp75
I12550
aI12831
aI14040
aI15680
aI16192
aI16499
aI26654
aI29782
aI32754
aI42976
aI106147
aI116241
aI116262
aI118018
aI131832
aI139273
aI146619
aI146933
aI173743
aI179839
aI225535
aI227291
aI231222
aI245072
aI245442
aI249964
aI252123
aI255731
aI260361
aI272967
aI282686
aI297987
aI337170
aI337343
aI346522
aI347685
aI368186
aI368873
aI393833
aI393921
aI413850
aI444659
aI477753
aI506045
aI554168
aI580246
aI620874
aI667007
aI731729
aI751078
aI786050
aI862812
aI862884
aI894912
aI945031
aI1014002
aI1146964
aI1217215
aI1272422
aI1300876
aI1319342
aI1319689
aI1486819
aI1581198
aI1600792
aI1843648
aI2026884
aI2044192
aI2259672
aI3441244
aI4436783
aI6761218
aI8057384
aI11654103
aI30529589
aI50415954
aI86155289
asI1575285
(lp76
I146933
aI231222
aI260361
aI786050
aI1272422
aI1669810
aI1762606
aI80773187
aI150275502
asI148413161
(lp77
I172285
aI225366
aI248792
aI778728
aI3077968
aI5929626
aI56401130
asI1089916
(lp78
I12550
aI12831
aI14497
aI42976
aI116241
aI225535
aI337170
aI347811
aI368186
aI444659
aI462843
aI751078
aI1146964
aI1217215
aI1272422
aI1290449
aI1311126
aI1319342
aI1581198
aI1600792
aI1617387
aI1843648
aI1862629
aI1920952
aI2129481
aI2363873
aI2550258
aI2992968
aI3029664
aI5287258
aI5298466
aI5547440
aI7073994
aI7294150
aI8057384
aI15364547
aI80773187
asI28495595
(lp79
I12550
aI12831
aI29782
aI108689
aI116241
aI118018
aI219821
aI231222
aI246757
aI246856
aI282686
aI347685
aI469976
aI523317
aI554168
aI667007
aI751078
aI1146964
aI1217215
aI1486819
aI1602667
aI1669810
aI2274410
aI2532888
aI3029664
aI3441244
aI3467213
aI4183714
aI5547440
aI13125304
aI15364547
aI142069252
asI121226
(lp80
I29782
aI33029
aI79422
aI106147
aI118018
aI147016
aI173743
aI245072
aI272967
aI393833
aI456097
aI862884
aI1305219
aI2556729
aI4880714
aI8977680
aI12325808
aI38707353
asI1300876
(lp81
I12550
aI12831
aI15543
aI15680
aI16192
aI16499
aI26654
aI29782
aI32754
aI116241
aI123679
aI131832
aI179839
aI203663
aI224954
aI282686
aI297987
aI368873
aI413850
aI424449
aI574461
aI620874
aI751078
aI894912
aI1004731
aI1790522
aI1843648
aI1862629
aI1920952
aI2947439
aI2992968
aI5287258
aI5547440
aI6761218
aI6894801
aI14909035
aI58634939
asI1718675
(lp82
I953381
aI2078363
aI2249344
aI3597496
aI4739965
asI1311126
(lp83
I12550
aI12831
aI16192
aI16499
aI16537
aI29782
aI32754
aI42976
aI116241
aI118018
aI139273
aI173743
aI179839
aI199223
aI227291
aI245442
aI246856
aI282686
aI337170
aI337343
aI347811
aI368873
aI393833
aI413850
aI442348
aI444659
aI452034
aI476938
aI506045
aI667007
aI731729
aI751078
aI786050
aI894912
aI1014002
aI1057571
aI1087337
aI1089916
aI1217215
aI1272422
aI1290449
aI1319342
aI1449294
aI1581198
aI1600792
aI1617387
aI1669810
aI1793831
aI1843648
aI1862629
aI1865623
aI1865832
aI1920952
aI1968451
aI1980279
aI2363873
aI2451360
aI2451902
aI2550258
aI2992968
aI5298466
aI7294150
aI7848381
aI8057384
aI8741997
aI8977680
aI9593425
aI11442505
aI18353899
aI19602998
aI54412957
aI80773187
aI85716885
asI346522
(lp84
I12550
aI12731
aI12831
aI14040
aI29782
aI42976
aI116241
aI131832
aI146933
aI173743
aI174043
aI179839
aI206998
aI227291
aI232516
aI245072
aI245442
aI246757
aI246856
aI255731
aI393921
aI402696
aI442348
aI462843
aI477753
aI862884
aI1004731
aI1217215
aI1272422
aI1486819
aI1602667
aI1843648
aI1984441
aI2129481
aI2566425
aI2947439
aI3944383
aI6761218
aI6896337
aI12325808
aI30529589
aI55088817
asI31373722
(lp85
I109085
asI207269
(lp86
I568916
aI1374671
aI7259942
asI438694
(lp87
I7307
aI9852
aI12550
aI14497
aI53064
aI116241
aI123679
aI131832
aI179839
aI227291
aI249964
aI368186
aI393833
aI413850
aI413970
aI424449
aI551071
aI731729
aI839311
aI868346
aI1052361
aI1217215
aI1305219
aI1451228
aI1865623
aI1920952
aI2026884
aI2566425
aI5969229
aI8541221
aI12094098
aI20298303
aI30529589
aI50415954
aI52762908
aI86155289
asI410023
(lp88
I14497
aI189157
aI812530
asI2582958
(lp89
I77515
aI225366
aI248792
aI307167
aI310813
aI778728
aI961397
aI1001373
aI1035606
aI1498011
aI1738618
aI1864497
aI3077968
aI3088296
aI3425190
aI3597496
aI3822278
aI3866434
aI4739965
aI5779753
aI5929626
aI6445962
aI25419650
aI56401130
asI255731
(lp90
I12550
aI12731
aI12831
aI16192
aI16499
aI29782
aI42976
aI116241
aI116262
aI131832
aI179839
aI206998
aI219821
aI225535
aI231222
aI232516
aI245072
aI245442
aI246757
aI246856
aI252123
aI260361
aI272967
aI282686
aI297987
aI337170
aI337343
aI346522
aI347685
aI347811
aI374836
aI393833
aI393921
aI402696
aI427483
aI452034
aI469976
aI477753
aI506045
aI554168
aI580246
aI620874
aI643860
aI667007
aI731729
aI751078
aI756843
aI862812
aI1087337
aI1146964
aI1217215
aI1272422
aI1413623
aI1600792
aI1602667
aI1669810
aI1819216
aI2044192
aI2259672
aI2274410
aI2363873
aI2947439
aI3029664
aI3441244
aI4183714
aI4436783
aI5062292
aI12325808
aI15364547
aI30529589
asI2485
(lp91
I34464
aI118018
aI568916
aI667007
aI945031
aI1080117
aI1374671
asI184959418
(lp92
I208601
aI503080
aI722176
aI1385115
aI9638849
aI32250015
aI99281206
aI162104584
asI12731
(lp93
I12550
aI12831
aI15680
aI16192
aI29782
aI42976
aI116241
aI131832
aI179839
aI219821
aI225535
aI231222
aI232516
aI245072
aI246856
aI252123
aI255731
aI260361
aI337170
aI337343
aI346522
aI393833
aI393921
aI452034
aI469976
aI477753
aI554168
aI580246
aI620874
aI751078
aI786050
aI1087337
aI1146964
aI1217215
aI1272422
aI1319342
aI1669810
aI3441244
aI5062292
aI6761218
aI7848381
aI30529589
asI7848381
(lp94
I12731
aI16192
aI227291
aI476938
aI667007
aI913926
aI1057571
aI1311126
aI1449294
aI1602667
aI1862629
aI1865623
aI3441244
aI4619115
aI5062292
aI5287258
aI7073994
aI8057384
aI8741997
aI9593425
aI11442505
aI13125304
aI15364547
aI18353899
aI54412957
aI80773187
aI150275502
asI1843648
(lp95
I12550
aI12831
aI14040
aI116241
aI131832
aI179839
aI346522
aI347811
aI442348
aI462843
aI1089916
aI1146964
aI1217215
aI1290449
aI1300876
aI1311126
aI1319342
aI1581198
aI1600792
aI1617387
aI1862629
aI1920952
aI2363873
aI2550258
aI2947439
aI2992968
aI5287258
aI6761218
aI7294150
aI58634939
aI80773187
asI15364547
(lp96
I12550
aI14497
aI14732
aI29782
aI131832
aI147016
aI179839
aI219821
aI225535
aI231222
aI245072
aI245442
aI246757
aI252123
aI255731
aI260361
aI272967
aI282686
aI297987
aI337170
aI337343
aI347685
aI368186
aI393833
aI393921
aI424449
aI452034
aI477753
aI506045
aI580246
aI667007
aI751078
aI812530
aI862812
aI1057571
aI1087337
aI1089916
aI1146964
aI1217215
aI1305219
aI1602667
aI1617387
aI1669810
aI1920952
aI1953271
aI1968451
aI2044192
aI2129481
aI2550258
aI2992968
aI3121728
aI3441244
aI4880714
aI5764928
aI6761218
aI6894801
aI7848381
aI8613619
aI8977680
aI12356227
aI14578337
aI28495595
aI30529589
aI142069252
aI150275502
asI965061
(lp97
I2247153
aI3302157
aI7427344
aI8057384
asI18890
(lp98
I1879007
aI7670954
aI25352498
aI104153855
aI229491157
asI1374671
(lp99
I2485
aI207269
aI568916
aI667007
aI1080117
aI7259942
asI1481171
(lp100
I12550
aI12831
aI73713
aI121475
aI249964
aI252646
aI444659
aI596529
aI643860
aI957225
aI979749
aI2055373
aI2259672
aI2303136
aI2451902
aI2557703
aI3261098
aI10497385
aI12094098
aI86155289
asI229491157
(lp101
I18890
aI1879007
aI3423846
aI4418533
aI5060618
aI25352498
aI26673208
aI104153855
aI241641655
asI5833180
(lp102
I224954
aI243998
aI510265
aI667007
aI1602667
asI2363873
(lp103
I12550
aI15680
aI16192
aI29782
aI116241
aI179839
aI255731
aI368873
aI444659
aI452034
aI554168
aI667007
aI957225
aI1057571
aI1089916
aI1217215
aI1234701
aI1290449
aI1311126
aI1319342
aI1581198
aI1600792
aI1790522
aI1843648
aI1862629
aI1865832
aI1920952
aI2129481
aI2451360
aI2451902
aI2550258
aI2992968
aI5062292
aI7294150
aI8057384
aI8741997
aI8977680
aI18353899
aI30529589
aI54412957
aI80773187
aI85716885
asI231911
(lp104
I12550
aI15543
aI51134
aI249964
aI307167
aI354643
aI808429
aI1984441
aI2143119
aI2247153
aI3597496
aI4619115
aI4739965
aI5298466
aI86155289
asI778728
(lp105
I77515
aI172285
aI225366
aI248792
aI307167
aI1001373
aI1864497
aI2582958
aI2829734
aI2962653
aI3077968
aI3088296
aI3425190
aI3822278
aI4046086
aI4739965
aI5779753
aI5929626
aI6113941
aI6139551
aI6202492
aI6445962
aI6487287
aI6535013
aI7263941
aI9463224
aI11963952
aI16946759
aI18176768
aI25419650
aI31335652
aI41585603
aI148413161
asI2247153
(lp106
I12550
aI15543
aI51134
aI131832
aI231911
aI249964
aI307167
aI354643
aI965061
aI1449294
aI1498011
aI1984441
aI2143119
aI2898571
aI3261098
aI3597496
aI4619115
aI5298466
aI19602998
aI86155289
asI1413623
(lp107
I118018
aI173743
aI179839
aI184197
aI225535
aI255731
aI427483
aI452034
aI456097
aI957225
aI1859310
aI2026884
aI3261098
aI20298303
aI50415954
asI424449
(lp108
I12550
aI12831
aI14497
aI14732
aI15680
aI16192
aI16537
aI42976
aI116241
aI123679
aI179839
aI184197
aI189157
aI191750
aI199223
aI282686
aI337343
aI368873
aI393833
aI413850
aI413970
aI426989
aI438694
aI551071
aI731729
aI786050
aI812530
aI839311
aI868346
aI979749
aI1014002
aI1052361
aI1146964
aI1217215
aI1272422
aI1300876
aI1319342
aI1319689
aI1451228
aI1569590
aI1600792
aI1617387
aI1859310
aI1862629
aI1865623
aI1920952
aI1953271
aI1968451
aI2014403
aI2550258
aI3261098
aI5764928
aI11442505
aI12523295
aI14578337
aI15364547
aI17549084
aI19602998
aI20298303
aI40360738
aI86155289
aI114497061
aI201219244
asI913926
(lp109
I14497
aI146933
aI219821
aI260361
aI272967
aI413970
aI786050
aI862812
aI1014002
aI1449294
aI1451228
aI1602667
aI3859394
aI7848381
aI8057384
aI9593425
aI80773187
aI150275502
asI1319342
(lp110
I12550
aI12731
aI12831
aI15680
aI16192
aI29782
aI42976
aI116241
aI123679
aI131832
aI146933
aI219821
aI224954
aI227291
aI231222
aI245072
aI246757
aI246856
aI272967
aI297987
aI337170
aI337343
aI347811
aI368186
aI413850
aI424449
aI452034
aI574461
aI751078
aI957225
aI1014002
aI1052361
aI1089916
aI1217215
aI1272422
aI1290449
aI1311126
aI1581198
aI1600792
aI1602667
aI1669810
aI1723244
aI1790522
aI1843648
aI1859310
aI1862629
aI1865623
aI1865832
aI1920952
aI1953271
aI2129481
aI2363873
aI2451902
aI2550258
aI2557703
aI2947439
aI2992968
aI3441244
aI4183714
aI5062292
aI6894801
aI7294150
aI8057384
aI8741997
aI18353899
aI20298303
aI30529589
aI80773187
aI85716885
aI86155289
aI144624416
aI150275502
asI234012
(lp111
I5287258
asI109085
(lp112
I31373722
asI12831
(lp113
I12550
aI12731
aI14040
aI16192
aI26654
aI29782
aI32754
aI42976
aI106147
aI108689
aI116241
aI118018
aI131832
aI146933
aI179839
aI206998
aI219821
aI225535
aI231222
aI232516
aI245072
aI245442
aI246757
aI246856
aI252123
aI252646
aI255731
aI272967
aI282686
aI297987
aI337170
aI346522
aI347685
aI347811
aI393833
aI393921
aI424449
aI427483
aI444659
aI452034
aI477753
aI506045
aI554168
aI580246
aI620874
aI643860
aI731729
aI751078
aI786050
aI862812
aI979749
aI1087337
aI1089916
aI1146964
aI1217215
aI1272422
aI1290449
aI1300876
aI1311126
aI1319342
aI1481171
aI1486819
aI1581198
aI1600792
aI1602667
aI1617387
aI1790522
aI1793831
aI1843648
aI1859310
aI1862629
aI1920952
aI2055373
aI2129481
aI2259672
aI2566425
aI2947439
aI2992968
aI3441244
aI3540368
aI5287258
aI5547440
aI6761218
aI6894801
aI7073994
aI7294150
aI8057384
aI8741997
aI12325808
aI28495595
aI30529589
aI42166037
aI50415954
aI55088817
aI86155289
asI8057384
(lp114
I12831
aI16192
aI42976
aI73713
aI116241
aI227291
aI243998
aI347811
aI452034
aI476938
aI510265
aI643860
aI667007
aI751078
aI786050
aI862812
aI913926
aI957225
aI965061
aI1014002
aI1057571
aI1089916
aI1311126
aI1319342
aI1449294
aI1451228
aI1581198
aI1600792
aI1602667
aI1669810
aI1859310
aI1862629
aI1920952
aI2025599
aI2363873
aI2451360
aI2586102
aI2947439
aI2992968
aI3128931
aI3540368
aI3859394
aI4619115
aI5287258
aI5298466
aI5547440
aI6894801
aI7073994
aI7848381
aI8741997
aI9593425
aI11442505
aI19602998
aI30529589
aI54412957
aI80773187
aI150275502
asI154158
(lp115
I12550
aI26654
aI33029
aI79422
aI147016
aI173743
aI225366
aI242859
aI245580
aI287793
aI310813
aI368186
aI378992
aI402696
aI1035606
aI1305219
aI1819216
aI2078363
aI2259672
aI2298006
aI6113941
asI596529
(lp116
I9852
aI14732
aI73713
aI118018
aI235795
aI368186
aI491718
aI574461
aI662903
aI957225
aI979749
aI1481171
aI1865623
aI5547440
aI52762908
asI199223
(lp117
I9852
aI32754
aI116241
aI123679
aI179839
aI189157
aI224954
aI243998
aI249964
aI287793
aI368186
aI413850
aI424449
aI476938
aI491718
aI510265
aI551071
aI862812
aI1052361
aI1057571
aI1217215
aI1311126
aI1319689
aI1451228
aI1581198
aI1602667
aI1819216
aI1859310
aI1865623
aI5547440
aI6761218
aI8741997
aI86155289
aI150275502
asI477753
(lp118
I12550
aI12731
aI12831
aI14040
aI15680
aI16192
aI29782
aI42976
aI106147
aI108689
aI116241
aI118018
aI131832
aI163830
aI179839
aI206998
aI219821
aI225535
aI231222
aI232516
aI245072
aI245442
aI246757
aI246856
aI252123
aI255731
aI260361
aI272967
aI282686
aI297987
aI337170
aI337343
aI346522
aI347685
aI393833
aI393921
aI402696
aI413850
aI444659
aI452034
aI469976
aI554168
aI580246
aI620874
aI643860
aI667007
aI731729
aI751078
aI756843
aI786050
aI862812
aI894912
aI953381
aI957225
aI1087337
aI1146964
aI1217215
aI1272422
aI1486819
aI1602667
aI1669810
aI1762606
aI1790522
aI1859310
aI1862629
aI1865623
aI2044192
aI2129481
aI2259672
aI2532888
aI2566425
aI2947439
aI3441244
aI4183714
aI6761218
aI6894801
aI8613619
aI15364547
aI30529589
aI42166037
aI142069252
aI150275502
asI1790522
(lp119
I12550
aI12831
aI14732
aI15680
aI16192
aI16537
aI29782
aI73713
aI103946
aI116241
aI129290
aI174043
aI203663
aI219821
aI224954
aI231222
aI245442
aI251010
aI272967
aI281206
aI297987
aI368873
aI378992
aI413850
aI444659
aI477753
aI894912
aI957225
aI979749
aI1217215
aI1290449
aI1300876
aI1319342
aI1412942
aI1581198
aI1600792
aI1837352
aI1862629
aI1971991
aI2208595
aI2363873
aI6854999
aI7294150
aI30529589
aI85716885
aI201219244
asI102169150
(lp120
I322822
aI503080
aI607539
aI1385115
aI2474780
aI3460023
aI99281206
aI133610926
asI20298303
(lp121
I14497
aI14732
aI116241
aI123679
aI163830
aI179839
aI249964
aI413970
aI424449
aI438694
aI506045
aI812530
aI868346
aI1146964
aI1290449
aI1319342
aI1413623
aI1451228
aI1617387
aI1819685
aI1862629
aI1968451
aI2129481
aI2275662
aI2550258
aI3302157
aI4145607
aI8613619
aI17549084
aI86155289
aI104426512
aI105420997
asI3121728
(lp122
I14732
aI53064
aI242859
aI812530
aI1146964
aI1234701
aI1617387
aI1953271
aI1968451
aI2208595
aI2303136
aI4896828
aI15364547
asI272967
(lp123
I12550
aI12831
aI16192
aI29782
aI33029
aI42976
aI79422
aI103946
aI106147
aI108689
aI116241
aI116262
aI121226
aI121475
aI131832
aI147016
aI219821
aI231222
aI232516
aI245072
aI245442
aI245580
aI246757
aI252123
aI255731
aI260361
aI297987
aI337170
aI337343
aI347685
aI393833
aI393921
aI402696
aI426989
aI456097
aI477753
aI523317
aI554168
aI574587
aI667007
aI751078
aI756843
aI786050
aI913926
aI1087337
aI1217215
aI1319342
aI1449294
aI1602667
aI1790522
aI2129481
aI2208595
aI2259672
aI2451360
aI2556729
aI2947439
aI3029664
aI3441244
aI3467213
aI4183714
aI4880714
aI5062292
aI5547440
aI6894801
aI8977680
aI12325808
aI15364547
aI30529589
aI142069252
aI149287848
asI10541837
(lp124
I974240
aI1875558
aI2348564
aI2774961
aI8869494
aI43899980
asI1819216
(lp125
I12550
aI26654
aI32754
aI33029
aI79422
aI147016
aI154158
aI173743
aI199223
aI242859
aI245072
aI255731
aI287793
aI368186
aI378992
aI402696
aI1305219
aI2259672
aI2557703
aI30529589
aI38707353
asI731729
(lp126
I12550
aI12831
aI14497
aI15680
aI16499
aI26654
aI42976
aI116241
aI121475
aI123679
aI179839
aI225535
aI235795
aI255731
aI282686
aI413850
aI413970
aI424449
aI438694
aI444659
aI452034
aI477753
aI551071
aI554168
aI839311
aI862812
aI957225
aI1014002
aI1052361
aI1146964
aI1217215
aI1272422
aI1290449
aI1311126
aI1451228
aI1581198
aI1600792
aI1862629
aI1865623
aI2055373
aI2947439
aI2992968
aI3441244
aI30529589
aI86155289
asI3441244
(lp127
I12550
aI12731
aI12831
aI15680
aI16192
aI16499
aI29782
aI106147
aI116241
aI116262
aI131832
aI146619
aI179839
aI219821
aI225535
aI231222
aI232516
aI246757
aI246856
aI255731
aI260361
aI272967
aI282686
aI337170
aI337343
aI393833
aI427483
aI452034
aI469976
aI477753
aI506045
aI523317
aI554168
aI568916
aI580246
aI643860
aI667007
aI731729
aI751078
aI756843
aI786050
aI862812
aI1087337
aI1146964
aI1217215
aI1272422
aI1319342
aI1319689
aI1451228
aI1602667
aI1669810
aI1862629
aI2044192
aI2129481
aI2947439
aI3128931
aI3467213
aI4183714
aI4436783
aI5062292
aI6894801
aI7848381
aI8613619
aI13125304
aI15364547
aI28495595
aI30529589
aI142069252
asI1272422
(lp128
I12550
aI12731
aI12831
aI14040
aI15680
aI16192
aI16499
aI26654
aI29782
aI32754
aI42976
aI103946
aI106147
aI116241
aI118018
aI121475
aI123679
aI131832
aI139273
aI146933
aI179839
aI206998
aI219821
aI225535
aI227291
aI231222
aI243998
aI245072
aI245442
aI246757
aI252123
aI255731
aI260361
aI282686
aI337170
aI337343
aI346522
aI347685
aI393833
aI393921
aI413850
aI424449
aI442348
aI444659
aI452034
aI469976
aI477753
aI506045
aI554168
aI568916
aI580246
aI584044
aI620874
aI643860
aI662903
aI667007
aI731729
aI751078
aI756843
aI786050
aI862812
aI957225
aI1089916
aI1146964
aI1217215
aI1290449
aI1311126
aI1319342
aI1412942
aI1486819
aI1575285
aI1581198
aI1600792
aI1602667
aI1669810
aI1762606
aI1793831
aI1862629
aI1865623
aI1865832
aI1971991
aI1980279
aI2044192
aI2055373
aI2129481
aI2259672
aI2557703
aI2566425
aI2947439
aI2992968
aI3441244
aI6761218
aI6894801
aI7294150
aI8613619
aI30529589
aI42166037
aI50415954
aI86155289
aI142069252
aI144624416
aI150275502
asI393833
(lp129
I12550
aI12731
aI12831
aI16192
aI29782
aI42976
aI108689
aI116241
aI121226
aI131832
aI179839
aI225535
aI231222
aI245072
aI245442
aI246757
aI246856
aI252123
aI255731
aI272967
aI282686
aI337170
aI337343
aI347685
aI393921
aI424449
aI438694
aI477753
aI523317
aI554168
aI580246
aI643860
aI667007
aI751078
aI756843
aI786050
aI862812
aI1087337
aI1146964
aI1217215
aI1272422
aI1311126
aI1486819
aI1602667
aI1669810
aI1865623
aI1865832
aI2044192
aI2129481
aI2259672
aI2947439
aI3029664
aI3441244
aI3859394
aI5547440
aI6761218
aI8613619
aI12356227
aI15364547
aI30529589
aI142069252
asI281206
(lp130
I12550
aI53064
aI131832
aI174043
aI287793
aI462843
aI574461
aI839311
aI1790522
aI1837352
aI6896337
aI58634939
asI3610434
(lp131
I26357
aI208601
aI322822
aI607539
aI1385115
aI2179808
aI2474780
aI3460023
aI6625501
asI83444350
(lp132
I961397
aI3077968
asI2249344
(lp133
I12550
aI307167
aI808429
aI953381
aI1718675
aI1984441
aI2078363
aI2143119
aI2451902
aI3597496
aI4619115
aI4739965
asI121475
(lp134
I12550
aI16192
aI26654
aI29782
aI33029
aI79422
aI103946
aI106147
aI129139
aI129290
aI131832
aI147016
aI173743
aI225366
aI245072
aI245442
aI245580
aI246757
aI251010
aI252646
aI272967
aI287793
aI337343
aI368186
aI378992
aI393921
aI442348
aI452034
aI574587
aI584044
aI643860
aI695408
aI731729
aI957225
aI979749
aI1272422
aI1305219
aI1481171
aI1486819
aI2259672
aI3467213
aI8977680
aI38707353
asI2898571
(lp135
I12550
aI51134
aI249964
aI307167
aI354643
aI1498011
aI1984441
aI2078363
aI2143119
aI2247153
aI2298006
aI3077968
aI3157005
aI3261098
aI3597496
aI4619115
aI5298466
aI6113941
aI19602998
aI86155289
asI12094098
(lp136
I184197
aI287793
aI438694
aI957225
aI1481171
aI1617387
aI1953271
aI1968451
aI4145607
aI5969229
aI8541221
aI10497385
aI25891526
aI50415954
aI52762908
asI6113941
(lp137
I154158
aI247857
aI248792
aI307167
aI778728
aI1498011
aI1864497
aI2829734
aI2898571
aI3077968
aI3395468
aI3425190
aI3822278
aI4739965
aI6445962
aI6487287
aI9463224
aI31335652
asI580246
(lp138
I12550
aI12731
aI12831
aI16192
aI29782
aI42976
aI107525
aI108689
aI116241
aI116262
aI131832
aI146619
aI179839
aI206998
aI225535
aI245072
aI252123
aI255731
aI282686
aI347685
aI393833
aI393921
aI427483
aI444659
aI452034
aI477753
aI506045
aI554168
aI643860
aI667007
aI751078
aI756843
aI786050
aI1146964
aI1217215
aI1272422
aI1617387
aI1669810
aI2044192
aI2532888
aI2947439
aI3128931
aI3441244
aI8613619
aI15364547
aI30529589
asI150275502
(lp139
I146933
aI179839
aI199223
aI203663
aI224954
aI225535
aI243998
aI246757
aI246856
aI260361
aI297987
aI347685
aI368873
aI476938
aI477753
aI510265
aI667007
aI786050
aI862812
aI862884
aI913926
aI1014002
aI1057571
aI1146964
aI1272422
aI1319342
aI1412942
aI1486819
aI1575285
aI1602667
aI1669810
aI1762606
aI1859310
aI1971991
aI2451360
aI2774961
aI3128931
aI3859394
aI4183714
aI5298466
aI5547440
aI7848381
aI8057384
aI8741997
aI15364547
aI54412957
aI80773187
aI113169129
aI142069252
asI5929626
(lp140
I77515
aI172285
aI225366
aI247857
aI248792
aI310813
aI778728
aI1001373
aI2582958
aI2962653
aI3077968
aI3425190
aI3866434
aI4046086
aI4417371
aI4739965
aI5779753
aI5973655
aI6139551
aI6202492
aI6487287
aI6535013
aI7263941
aI9463224
aI11963952
aI14929213
aI16946759
aI18176768
aI25419650
aI41585603
aI56401130
aI89666302
aI148413161
asI1385115
(lp141
I208601
aI322822
aI503080
aI607539
aI1078218
aI2179808
aI2474780
aI3460023
aI3610434
aI3955597
aI9638849
aI9759749
aI32250015
aI99281206
aI102169150
aI133610926
aI162104584
aI184959418
asI3029664
(lp142
I108689
aI231222
aI246757
aI246856
aI255731
aI272967
aI347685
aI393833
aI427483
aI554168
aI620874
aI643860
aI1089916
aI1217215
aI2532888
aI2992968
aI28495595
asI14578337
(lp143
I14497
aI14732
aI179839
aI184197
aI189157
aI424449
aI812530
aI1146964
aI1569590
aI1617387
aI1859310
aI1920952
aI1953271
aI2303136
aI4145607
aI5287258
aI5764928
aI8541221
aI8741997
aI11442505
aI11654103
aI12523295
aI15364547
aI40360738
aI201219244
asI862884
(lp144
I12550
aI26654
aI29782
aI32754
aI51134
aI106147
aI116241
aI118018
aI121226
aI173743
aI179839
aI225535
aI232516
aI243998
aI245072
aI245442
aI337170
aI346522
aI368873
aI378992
aI402696
aI413850
aI442348
aI447828
aI452034
aI510265
aI1057571
aI1305219
aI1449294
aI2259672
aI2556729
aI2947439
aI3261098
aI4880714
aI8977680
aI50415954
aI150275502
asI3261098
(lp145
I12550
aI16499
aI51134
aI118018
aI173743
aI249964
aI282686
aI337343
aI354643
aI424449
aI862884
aI1052361
aI1087337
aI1413623
aI1481171
aI1498011
aI2026884
aI2247153
aI2898571
aI3597496
aI4145607
aI4619115
aI4650856
aI19602998
aI30529589
aI86155289
asI219821
(lp146
I12550
aI12731
aI12831
aI16192
aI29782
aI73713
aI116241
aI116262
aI131832
aI163830
aI179839
aI206998
aI225535
aI231222
aI232516
aI245072
aI245442
aI246757
aI252123
aI255731
aI272967
aI282686
aI297987
aI337170
aI337343
aI413850
aI427483
aI452034
aI469976
aI477753
aI523317
aI554168
aI751078
aI756843
aI786050
aI913926
aI1014002
aI1087337
aI1146964
aI1217215
aI1272422
aI1319342
aI1449294
aI1486819
aI1602667
aI1790522
aI2298006
aI3441244
aI4183714
aI4436783
aI5062292
aI15364547
aI28495595
aI30529589
asI1669810
(lp147
I12550
aI12731
aI16192
aI29782
aI32754
aI33029
aI116241
aI146933
aI173743
aI179839
aI206998
aI225535
aI231222
aI243998
aI245072
aI246757
aI246856
aI255731
aI260361
aI282686
aI337343
aI347685
aI347811
aI393833
aI469976
aI476938
aI477753
aI510265
aI554168
aI580246
aI643860
aI667007
aI751078
aI756843
aI786050
aI862812
aI913926
aI1014002
aI1146964
aI1217215
aI1272422
aI1311126
aI1319342
aI1412942
aI1486819
aI1575285
aI1602667
aI1762606
aI1862629
aI1865623
aI2274410
aI2532888
aI3441244
aI3859394
aI4183714
aI5547440
aI6894801
aI8057384
aI15364547
aI28495595
aI30529589
aI50081416
aI50415954
aI80773187
aI113169129
aI142069252
aI150275502
asI16499
(lp148
I12550
aI14497
aI15680
aI16192
aI73713
aI116241
aI123679
aI174043
aI179839
aI203663
aI225535
aI255731
aI368873
aI374836
aI413850
aI413970
aI427483
aI452034
aI554168
aI731729
aI756843
aI1272422
aI1300876
aI1311126
aI2947439
aI3261098
aI3441244
aI5547440
aI14909035
aI86155289
asI58634939
(lp149
I12550
aI131832
aI179839
aI281206
aI462843
aI1004731
aI1217215
aI1300876
aI1843648
aI6761218
asI1217215
(lp150
I7307
aI12550
aI12731
aI12831
aI14040
aI15680
aI16192
aI26654
aI29782
aI32754
aI33029
aI42976
aI54710
aI73713
aI106147
aI116241
aI116262
aI118018
aI123679
aI131832
aI146933
aI163830
aI173743
aI179839
aI199223
aI203663
aI206998
aI219821
aI224954
aI225366
aI225535
aI231222
aI232516
aI235795
aI242859
aI243998
aI245072
aI245442
aI246757
aI246856
aI249964
aI251010
aI252123
aI252646
aI255731
aI260361
aI272967
aI282686
aI297987
aI337170
aI337343
aI346522
aI347685
aI347811
aI368186
aI368873
aI378992
aI393833
aI393921
aI402696
aI413850
aI424449
aI427483
aI438694
aI447828
aI452034
aI462843
aI469976
aI477753
aI491718
aI506045
aI551071
aI554168
aI568916
aI580246
aI625596
aI643860
aI662903
aI667007
aI731729
aI751078
aI756843
aI786050
aI808258
aI862812
aI868346
aI957225
aI1014002
aI1052361
aI1087337
aI1089916
aI1146964
aI1234701
aI1272422
aI1305219
aI1311126
aI1319342
aI1319689
aI1412942
aI1486819
aI1575285
aI1581198
aI1600792
aI1602667
aI1669810
aI1790522
aI1843648
aI1862629
aI1865623
aI1953271
aI1980279
aI2044192
aI2129481
aI2143119
aI2363873
aI2451902
aI2532888
aI2557703
aI2566425
aI2947439
aI3029664
aI3075889
aI3441244
aI3467213
aI4183714
aI5062292
aI5287258
aI5547440
aI6761218
aI6894801
aI7073994
aI7294150
aI8613619
aI8977680
aI12325808
aI15364547
aI28495595
aI30529589
aI58634939
aI80773187
aI86155289
aI142069252
asI393921
(lp151
I12550
aI12731
aI12831
aI16192
aI29782
aI42976
aI103946
aI106147
aI116241
aI121475
aI131832
aI146933
aI206998
aI225535
aI245072
aI252123
aI255731
aI260361
aI272967
aI337343
aI346522
aI347685
aI393833
aI427483
aI452034
aI477753
aI554168
aI574461
aI580246
aI643860
aI751078
aI786050
aI957225
aI1217215
aI1272422
aI2044192
aI2129481
aI2259672
aI2947439
aI6761218
aI15364547
aI30529589
asI3822278
(lp152
I172285
aI247857
aI778728
aI1738618
aI1864497
aI2143119
aI2582958
aI2829734
aI3395468
aI3425190
aI3866434
aI4739965
aI5779753
aI6113941
aI6139551
aI6202492
aI6445962
aI6535013
aI9463224
aI11963952
aI31335652
asI3359439
(lp153
I8357895
asI6896337
(lp154
I281206
aI346522
asI2259672
(lp155
I12550
aI12831
aI26654
aI29782
aI32754
aI33029
aI79422
aI106147
aI116241
aI118018
aI121475
aI131832
aI146933
aI154158
aI252646
aI255731
aI272967
aI282686
aI287793
aI337170
aI368186
aI378992
aI393833
aI393921
aI402696
aI442348
aI452034
aI477753
aI786050
aI862884
aI894912
aI1146964
aI1272422
aI1305219
aI1481171
aI1617387
aI1819216
aI1862629
aI1953271
aI1968451
aI2566425
aI2947439
aI30529589
asI2179808
(lp156
I26357
aI322822
aI503080
aI607539
aI1385115
aI2474780
aI3460023
aI3610434
aI3955597
aI6625501
aI29237969
aI32250015
asI189157
(lp157
I14497
aI14732
aI123679
aI163830
aI174043
aI179839
aI199223
aI410023
aI424449
aI812530
aI868346
aI979749
aI1146964
aI1290449
aI1569590
aI1617387
aI1859310
aI1920952
aI1953271
aI1968451
aI2550258
aI4650856
aI5764928
aI8357895
aI12523295
aI14578337
aI17549084
aI19602998
aI40360738
aI114497061
aI201219244
asI252646
(lp158
I12550
aI12831
aI14497
aI14732
aI26654
aI32754
aI33029
aI79422
aI103946
aI118018
aI121475
aI191750
aI242859
aI287793
aI368186
aI368873
aI378992
aI574461
aI812530
aI894912
aI1146964
aI1217215
aI1305219
aI1481171
aI1862629
aI1920952
aI1953271
aI1968451
aI2259672
asI113169129
(lp159
I510265
aI1057571
aI1602667
aI1669810
aI5298466
aI80773187
aI150275502
asI131832
(lp160
I12550
aI12731
aI12831
aI14040
aI16192
aI29782
aI42976
aI103946
aI106147
aI107525
aI116241
aI121475
aI129139
aI146933
aI163830
aI174043
aI179839
aI206998
aI219821
aI225535
aI227291
aI231222
aI232516
aI245072
aI245442
aI246757
aI246856
aI252123
aI255731
aI260361
aI272967
aI281206
aI282686
aI297987
aI337170
aI337343
aI346522
aI347685
aI368186
aI393833
aI393921
aI427483
aI438694
aI452034
aI462843
aI469976
aI477753
aI506045
aI554168
aI580246
aI643860
aI667007
aI751078
aI786050
aI862812
aI1004731
aI1087337
aI1146964
aI1217215
aI1272422
aI1300876
aI1319342
aI1449294
aI1843648
aI1865623
aI2044192
aI2129481
aI2247153
aI2259672
aI2566425
aI2586102
aI2947439
aI3441244
aI5062292
aI6761218
aI7294150
aI12325808
aI15364547
aI30529589
aI55088817
aI58634939
asI246757
(lp161
I12550
aI12831
aI16192
aI29782
aI33029
aI42976
aI116241
aI116262
aI118018
aI121475
aI129139
aI129789
aI131832
aI146933
aI147016
aI179839
aI219821
aI231222
aI243998
aI245072
aI245442
aI246856
aI255731
aI260361
aI272967
aI282686
aI337343
aI346522
aI368186
aI393833
aI469976
aI477753
aI554168
aI667007
aI751078
aI756843
aI786050
aI1014002
aI1087337
aI1146964
aI1217215
aI1272422
aI1305219
aI1319342
aI1602667
aI1669810
aI1762606
aI2274410
aI2416465
aI2532888
aI3029664
aI3441244
aI4183714
aI5062292
aI6894801
aI8977680
aI13125304
aI15364547
aI28495595
aI30529589
aI142069252
aI150275502
asI129789
(lp162
I246757
aI667007
asI89666302
(lp163
I225366
aI248792
aI1498011
aI3077968
aI4046086
aI5929626
aI7263941
aI9463224
aI11963952
aI14929213
aI18176768
aI25419650
asI104153855
(lp164
I18890
aI1879007
aI2456455
aI3423846
aI4418533
aI5060618
aI7670954
aI25352498
aI26673208
aI67066812
aI163960704
aI229491157
aI241641655
asI18176768
(lp165
I172285
aI225366
aI248792
aI307167
aI310813
aI778728
aI961397
aI2962653
aI3077968
aI3866434
aI4046086
aI5929626
aI6535013
aI7263941
aI9463224
aI11963952
aI14929213
aI16946759
aI25419650
aI41585603
aI56401130
aI89666302
asI6761218
(lp166
I12550
aI12731
aI12831
aI29782
aI33029
aI42976
aI103946
aI106147
aI116241
aI118018
aI131832
aI146933
aI163830
aI179839
aI199223
aI227291
aI235795
aI245072
aI245442
aI252123
aI297987
aI337170
aI346522
aI368186
aI393833
aI393921
aI477753
aI551071
aI751078
aI1146964
aI1217215
aI1234701
aI1272422
aI1300876
aI1581198
aI1843648
aI2557703
aI2566425
aI2947439
aI5547440
aI15364547
aI30529589
aI55088817
aI58634939
asI1319689
(lp167
I9852
aI116241
aI123679
aI163830
aI199223
aI368186
aI424449
aI491718
aI551071
aI979749
aI1014002
aI1052361
aI1217215
aI1862629
aI1865623
aI2947439
aI3441244
aI4436783
aI5547440
asI3302157
(lp168
I625596
aI965061
aI1819685
aI2275662
aI2764775
aI20298303
aI104426512
asI643860
(lp169
I12550
aI12831
aI29782
aI42976
aI107525
aI108689
aI116241
aI116262
aI118018
aI121475
aI131832
aI146619
aI179839
aI206998
aI227291
aI245072
aI252123
aI255731
aI282686
aI337170
aI347685
aI393833
aI393921
aI427483
aI444659
aI452034
aI469976
aI477753
aI506045
aI554168
aI580246
aI620874
aI667007
aI751078
aI1217215
aI1272422
aI1451228
aI1481171
aI1669810
aI1793831
aI1859310
aI1862629
aI2044192
aI2055373
aI2303136
aI2532888
aI3029664
aI3441244
aI8057384
aI30529589
aI86155289
asI2474780
(lp170
I47247
aI208601
aI322822
aI503080
aI607539
aI722176
aI1385115
aI1719780
aI2179808
aI3460023
aI3610434
aI3955597
aI9638849
aI9759749
aI32250015
aI99281206
aI102169150
aI133610926
asI123679
(lp171
I12550
aI14497
aI16499
aI116241
aI146933
aI179839
aI189157
aI199223
aI203663
aI225535
aI282686
aI368873
aI413850
aI424449
aI438694
aI551071
aI731729
aI786050
aI839311
aI1217215
aI1272422
aI1300876
aI1319342
aI1319689
aI1451228
aI1581198
aI1600792
aI1859310
aI1862629
aI20298303
aI86155289
asI7021344
(lp172
sI40360738
(lp173
I14497
aI189157
aI424449
aI1146964
aI1617387
aI2129481
aI4145607
aI5287258
aI5298466
aI9593425
aI14578337
aI17549084
aI19602998
aI30529589
aI42166037
aI80773187
asI1057571
(lp174
I27592
aI32754
aI116241
aI118018
aI173743
aI199223
aI203663
aI224954
aI243998
aI354643
aI368873
aI444659
aI476938
aI510265
aI662903
aI667007
aI862884
aI957225
aI1004731
aI1311126
aI1449294
aI1859310
aI1920952
aI1971991
aI1980279
aI2025599
aI2208595
aI2363873
aI2451360
aI2556729
aI4880714
aI5547440
aI7848381
aI8057384
aI8741997
aI8977680
aI9593425
aI15364547
aI50415954
aI80773187
aI113169129
aI150275502
asI979749
(lp175
I12831
aI14497
aI14732
aI29782
aI42976
aI73713
aI118018
aI121475
aI189157
aI206998
aI347685
aI424449
aI444659
aI596529
aI957225
aI1319689
aI1481171
aI1617387
aI1790522
aI1859310
aI2303136
aI3540368
asI957225
(lp176
I14497
aI16192
aI106147
aI116241
aI121475
aI129139
aI146933
aI163830
aI179839
aI203663
aI225535
aI243998
aI368873
aI393921
aI442348
aI444659
aI452034
aI469976
aI477753
aI510265
aI554168
aI596529
aI731729
aI894912
aI979749
aI1014002
aI1057571
aI1217215
aI1234701
aI1272422
aI1319342
aI1412942
aI1413623
aI1481171
aI1486819
aI1600792
aI1790522
aI1859310
aI1862629
aI1920952
aI1953271
aI1980279
aI2026884
aI2363873
aI2566425
aI2586102
aI3128931
aI6854999
aI8057384
aI12094098
aI30529589
aI201219244
asI4436783
(lp177
I16192
aI116262
aI179839
aI219821
aI225535
aI232516
aI255731
aI282686
aI469976
aI506045
aI756843
aI1319689
aI1451228
aI2947439
aI3331477
aI3441244
aI5062292
asI1864497
(lp178
I247857
aI778728
aI2582958
aI2829734
aI3395468
aI3425190
aI3822278
aI3866434
aI6113941
aI6445962
aI9463224
aI31335652
asI1080117
(lp179
I2485
aI568916
aI667007
aI945031
aI1374671
aI7259942
asI1569590
(lp180
I14497
aI179839
aI184197
aI189157
aI424449
aI667007
aI812530
aI1617387
aI1859310
aI1953271
aI4145607
aI5287258
aI5764928
aI8541221
aI8741997
aI11442505
aI11654103
aI12523295
aI14578337
aI19602998
aI201219244
asI2556729
(lp181
I121226
aI173743
aI251010
aI272967
aI456097
aI476938
aI862884
aI1057571
aI2208595
aI2451360
aI8977680
aI80773187
asI13984575
(lp182
I568916
asI21248835
(lp183
I4418533
asI2992968
(lp184
I12550
aI12831
aI16192
aI42976
aI116241
aI139273
aI282686
aI337170
aI347811
aI506045
aI574461
aI667007
aI731729
aI751078
aI786050
aI1087337
aI1089916
aI1272422
aI1290449
aI1300876
aI1311126
aI1319342
aI1581198
aI1600792
aI1617387
aI1723244
aI1793831
aI1843648
aI1862629
aI1865832
aI1920952
aI2129481
aI2363873
aI2451902
aI2550258
aI3029664
aI5298466
aI6894801
aI8057384
aI8613619
aI8741997
aI11442505
aI15364547
aI54412957
aI80773187
asI2208595
(lp185
I118018
aI173743
aI231222
aI272967
aI287793
aI297987
aI574461
aI1057571
aI1449294
aI1790522
aI1793831
aI1862629
aI1920952
aI1980279
aI2025599
aI2451360
aI2451902
aI2550258
aI2556729
aI3121728
aI3128931
aI5062292
asI791383
(lp186
sI4619115
(lp187
I12550
aI51134
aI231222
aI231911
aI297987
aI307167
aI354643
aI808429
aI1035606
aI1449294
aI1498011
aI1984441
aI2078363
aI2143119
aI2247153
aI2249344
aI2298006
aI2451902
aI2898571
aI3077968
aI3157005
aI3261098
aI3597496
aI4739965
aI5062292
aI5298466
aI5304613
aI7073994
aI7848381
aI8057384
aI9593425
aI11442505
aI19602998
aI20203737
asI961397
(lp188
I77515
aI248792
aI307167
aI310813
aI1001373
aI1035606
aI1738618
aI2582958
aI3077968
aI3088296
aI3597496
aI3866434
aI4739965
aI5304613
aI5779753
aI6202492
aI11963952
aI18176768
aI25419650
aI56401130
aI83444350
asI4739965
(lp189
I15543
aI51134
aI77515
aI231911
aI247857
aI248792
aI307167
aI310813
aI778728
aI953381
aI961397
aI1001373
aI1035606
aI1498011
aI1718675
aI2078363
aI2143119
aI2249344
aI2298006
aI2451902
aI2582958
aI3077968
aI3088296
aI3157005
aI3425190
aI3597496
aI3822278
aI3866434
aI4619115
aI5298466
aI5304613
aI5779753
aI5929626
aI6113941
aI6202492
aI6445962
aI11963952
aI20203737
aI25419650
asI5764928
(lp190
I14497
aI14732
aI179839
aI189157
aI424449
aI574461
aI812530
aI1569590
aI4145607
aI14578337
aI15364547
aI25891526
aI26910255
aI201219244
asI2298006
(lp191
I154158
aI219821
aI354643
aI953381
aI1984441
aI2078363
aI2451902
aI2898571
aI4619115
aI4739965
aI5298466
asI2456455
(lp192
I1879007
aI67066812
aI104153855
asI6445962
(lp193
I77515
aI247857
aI307167
aI310813
aI778728
aI1001373
aI1035606
aI1864497
aI1984441
aI2582958
aI2829734
aI3077968
aI3395468
aI3425190
aI3822278
aI3866434
aI4046086
aI4417371
aI4739965
aI5298466
aI5304613
aI5779753
aI6113941
aI6202492
aI7263941
aI9463224
aI25419650
aI31335652
aI56401130
asI3955597
(lp194
I47247
aI208601
aI322822
aI503080
aI607539
aI722176
aI1385115
aI2179808
aI2474780
aI3460023
aI9638849
aI9759749
aI21303924
aI29237969
aI32250015
aI99281206
aI133610926
aI162104584
asI2143119
(lp195
I12550
aI15543
aI51134
aI231911
aI307167
aI808258
aI808429
aI1217215
aI1498011
aI1984441
aI2078363
aI2247153
aI2249344
aI2898571
aI3157005
aI3597496
aI3822278
aI4619115
aI4739965
aI5298466
aI19602998
aI86155289
asI38707353
(lp196
I12550
aI14040
aI26654
aI29782
aI33029
aI79422
aI103946
aI121226
aI121475
aI129139
aI147016
aI173743
aI225366
aI236988
aI245072
aI245442
aI245580
aI287793
aI337343
aI368186
aI378992
aI402696
aI574587
aI584044
aI695408
aI1305219
aI1819216
aI2451360
aI3467213
aI8977680
asI55698338
(lp197
I3423846
aI40366287
asI3425190
(lp198
I247857
aI248792
aI778728
aI1001373
aI1864497
aI2582958
aI2962653
aI3077968
aI3395468
aI3822278
aI3866434
aI4417371
aI4739965
aI5779753
aI5929626
aI6113941
aI6445962
aI6535013
aI9463224
aI25419650
asI149287848
(lp199
I173743
aI272967
aI751078
aI30529589
asI12325808
(lp200
I12550
aI12831
aI29782
aI42976
aI116241
aI121226
aI131832
aI245072
aI245442
aI246856
aI255731
aI272967
aI297987
aI337170
aI337343
aI346522
aI456097
aI469976
aI1217215
aI1602667
aI4880714
aI6894801
asI3460023
(lp201
I47247
aI208601
aI322822
aI503080
aI607539
aI722176
aI1078218
aI1385115
aI1719780
aI2179808
aI2474780
aI3610434
aI3955597
aI9638849
aI9759749
aI29237969
aI32250015
aI99281206
aI102169150
aI133610926
asI32250015
(lp202
I208601
aI322822
aI607539
aI1385115
aI1719780
aI2179808
aI2474780
aI3460023
aI3955597
aI9638849
aI9759749
aI99281206
aI133610926
aI184959418
asI625596
(lp203
I1217215
aI1819685
aI3302157
aI105420997
asI9638849
(lp204
I47247
aI208601
aI322822
aI503080
aI607539
aI1385115
aI2474780
aI3460023
aI3955597
aI9759749
aI32250015
aI99281206
aI184959418
asI3859394
(lp205
I260361
aI393833
aI786050
aI913926
aI1412942
aI1449294
aI1602667
aI1669810
aI1862629
aI1865832
aI1920952
aI3128931
aI5062292
aI5547440
aI7073994
aI8057384
aI8741997
aI54412957
aI80773187
aI150275502
asI41585603
(lp206
I172285
aI225366
aI778728
aI1078218
aI2962653
aI3077968
aI4417371
aI5929626
aI6535013
aI7263941
aI9463224
aI11963952
aI14929213
aI18176768
aI19841323
aI56401130
asI27592
(lp207
I1057571
aI2451360
aI2557703
aI50415954
asI1078218
(lp208
I607539
aI722176
aI1385115
aI3460023
aI41585603
aI99281206
asI11654103
(lp209
I106147
aI173743
aI243998
aI251010
aI667007
aI1569590
aI2947439
aI3467213
aI14578337
asI469976
(lp210
I12550
aI12731
aI16192
aI29782
aI116241
aI116262
aI131832
aI179839
aI219821
aI225535
aI231222
aI232516
aI245072
aI246757
aI246856
aI255731
aI260361
aI282686
aI297987
aI337170
aI337343
aI427483
aI452034
aI477753
aI506045
aI523317
aI554168
aI620874
aI643860
aI667007
aI756843
aI862812
aI957225
aI1087337
aI1217215
aI1272422
aI1449294
aI1602667
aI1669810
aI2129481
aI3441244
aI3467213
aI4183714
aI4436783
aI5062292
aI12325808
aI13125304
aI28495595
aI30529589
aI142069252
asI1879007
(lp211
I18890
aI2456455
aI3423846
aI5060618
aI7670954
aI25352498
aI26673208
aI229491157
aI241641655
asI4418533
(lp212
I1879007
aI3423846
aI21248835
aI25352498
aI40366287
aI104153855
aI229491157
aI241641655
asI426989
(lp213
I12550
aI191750
aI272967
aI424449
aI812530
asI574461
(lp214
I12550
aI14497
aI14732
aI73713
aI242859
aI252646
aI281206
aI393921
aI447828
aI506045
aI596529
aI812530
aI1146964
aI1300876
aI1319342
aI1953271
aI2208595
aI2992968
aI5547440
aI5764928
aI18353899
aI85716885
asI9216
(lp215
I12550
aI95831
asI297987
(lp216
I12550
aI12831
aI16192
aI29782
aI107525
aI108689
aI116241
aI116262
aI131832
aI146933
aI203663
aI219821
aI231222
aI245072
aI245442
aI252123
aI255731
aI260361
aI272967
aI282686
aI337170
aI337343
aI347685
aI378992
aI427483
aI444659
aI469976
aI477753
aI506045
aI523317
aI620874
aI667007
aI756843
aI786050
aI1146964
aI1217215
aI1300876
aI1319342
aI1449294
aI1581198
aI1602667
aI1790522
aI1859310
aI1862629
aI1865832
aI2044192
aI2208595
aI2947439
aI4183714
aI4619115
aI5298466
aI6761218
aI6894801
aI7294150
aI8541221
aI12325808
aI13125304
aI15364547
aI30529589
aI54412957
aI85716885
aI150275502
asI107525
(lp217
I12550
aI16192
aI29782
aI131832
aI179839
aI225535
aI245442
aI282686
aI297987
aI337170
aI427483
aI554168
aI580246
aI643860
aI756843
aI862812
aI1146964
aI2532888
aI6894801
asI1231882
(lp218
I3075889
asI3157005
(lp219
I307167
aI2143119
aI2898571
aI3597496
aI4619115
aI4739965
aI5298466
aI5304613
asI104426512
(lp220
I1004731
aI1819685
aI2275662
aI3302157
aI5547440
aI20298303
asI144624416
(lp221
I14497
aI179839
aI1272422
aI1319342
aI1581198
aI1617387
aI4145607
aI5287258
aI11442505
aI18353899
aI25891526
aI52762908
asI1819685
(lp222
I625596
aI2275662
aI3302157
aI20298303
aI104426512
aI105420997
asI287793
(lp223
I26654
aI29782
aI32754
aI33029
aI103946
aI121475
aI147016
aI154158
aI173743
aI199223
aI252646
aI281206
aI368186
aI378992
aI402696
aI839311
aI894912
aI1305219
aI1819216
aI1862629
aI2208595
aI2259672
aI12094098
aI30529589
aI38707353
asI523317
(lp224
I219821
aI232516
aI252123
aI272967
aI297987
aI337343
aI393833
aI427483
aI469976
aI756843
aI862812
aI1602667
aI3441244
aI3467213
aI4183714
aI5062292
aI13125304
aI28495595
aI30529589
asI232516
(lp225
I12731
aI12831
aI16192
aI29782
aI32754
aI51134
aI108689
aI116241
aI118018
aI131832
aI179839
aI219821
aI225535
aI231222
aI245072
aI252123
aI255731
aI260361
aI272967
aI282686
aI337170
aI346522
aI378992
aI402696
aI452034
aI469976
aI477753
aI523317
aI554168
aI756843
aI862884
aI1087337
aI1146964
aI1217215
aI1449294
aI1486819
aI2055373
aI2532888
aI3441244
aI4183714
aI4436783
asI246856
(lp226
I12550
aI12731
aI12831
aI16192
aI29782
aI108689
aI116241
aI116262
aI131832
aI146619
aI203663
aI225535
aI231222
aI243998
aI245072
aI245442
aI246757
aI255731
aI260361
aI282686
aI337170
aI337343
aI346522
aI393833
aI469976
aI476938
aI477753
aI554168
aI751078
aI756843
aI1146964
aI1217215
aI1311126
aI1319342
aI1602667
aI1669810
aI1865623
aI1865832
aI2055373
aI2274410
aI2416465
aI2532888
aI3029664
aI3441244
aI4183714
aI5062292
aI6894801
aI12325808
aI13125304
aI28495595
aI50081416
aI54412957
aI150275502
asI241641655
(lp227
I1879007
aI3423846
aI4418533
aI5060618
aI104153855
aI229491157
asI43899980
(lp228
I243998
aI568916
aI667007
aI812530
aI974240
aI1146964
aI1762606
aI1875558
aI1953271
aI2348564
aI2774961
aI3077968
aI8869494
aI10541837
aI12356227
aI24467145
aI30899759
aI75360101
asI3597496
(lp229
I12550
aI32754
aI51134
aI231911
aI248792
aI249964
aI307167
aI310813
aI354643
aI961397
aI1035606
aI1498011
aI1718675
aI1984441
aI2078363
aI2143119
aI2247153
aI2249344
aI2451902
aI2582958
aI2898571
aI3077968
aI3157005
aI3261098
aI3866434
aI4619115
aI4739965
aI5298466
aI5304613
aI5973655
aI6202492
aI19602998
aI20203737
aI86155289
asI29782
(lp230
I12550
aI12731
aI12831
aI15680
aI16192
aI26654
aI33029
aI42976
aI79422
aI103946
aI106147
aI107525
aI116241
aI118018
aI121226
aI121475
aI129139
aI129290
aI131832
aI147016
aI173743
aI179839
aI219821
aI225366
aI225535
aI231222
aI232516
aI236988
aI245072
aI245442
aI245580
aI246757
aI246856
aI251010
aI252123
aI255731
aI260361
aI272967
aI282686
aI287793
aI297987
aI337170
aI337343
aI346522
aI347685
aI347811
aI354643
aI368186
aI378992
aI393833
aI393921
aI402696
aI427483
aI442348
aI447828
aI452034
aI456097
aI462843
aI469976
aI477753
aI554168
aI574587
aI580246
aI584044
aI643860
aI667007
aI695408
aI751078
aI756843
aI786050
aI862812
aI862884
aI979749
aI1087337
aI1146964
aI1217215
aI1272422
aI1300876
aI1305219
aI1311126
aI1319342
aI1486819
aI1600792
aI1602667
aI1669810
aI1790522
aI1862629
aI1865623
aI1920952
aI1968451
aI2129481
aI2259672
aI2363873
aI2416465
aI2451360
aI2947439
aI3441244
aI3467213
aI4183714
aI4880714
aI5547440
aI6761218
aI6894801
aI8613619
aI8977680
aI12325808
aI12356227
aI13125304
aI15364547
aI28495595
aI30529589
aI38707353
aI142069252
asI75360101
(lp231
sI146619
(lp232
I16192
aI116241
aI116262
aI246856
aI252123
aI554168
aI580246
aI643860
aI667007
aI2947439
aI3128931
aI3441244
aI5062292
asI1602667
(lp233
I12550
aI12831
aI14497
aI16192
aI29782
aI42976
aI116241
aI116262
aI146933
aI199223
aI206998
aI219821
aI224954
aI225535
aI231222
aI243998
aI245442
aI246757
aI246856
aI255731
aI260361
aI272967
aI282686
aI297987
aI337343
aI346522
aI347685
aI393833
aI469976
aI476938
aI477753
aI510265
aI523317
aI554168
aI667007
aI751078
aI756843
aI786050
aI812530
aI862812
aI913926
aI1014002
aI1217215
aI1272422
aI1319342
aI1412942
aI1449294
aI1669810
aI1762606
aI1865832
aI1971991
aI2348564
aI2774961
aI3128931
aI3441244
aI3859394
aI4183714
aI5298466
aI5833180
aI7848381
aI8057384
aI12325808
aI13125304
aI15364547
aI28495595
aI30529589
aI80773187
aI113169129
aI142069252
aI150275502
asI8741997
(lp234
I12831
aI16192
aI116241
aI179839
aI199223
aI224954
aI227291
aI243998
aI368873
aI506045
aI510265
aI667007
aI894912
aI1057571
aI1311126
aI1319342
aI1449294
aI1486819
aI1569590
aI1581198
aI1600792
aI1859310
aI2363873
aI2451360
aI2557703
aI2992968
aI3540368
aI3859394
aI5062292
aI5287258
aI5298466
aI5547440
aI7073994
aI7848381
aI8057384
aI11442505
aI14578337
aI18353899
aI30529589
aI150275502
asI695408
(lp235
I12550
aI26654
aI29782
aI33029
aI79422
aI121475
aI147016
aI173743
aI225366
aI236988
aI242859
aI245072
aI245442
aI368186
aI378992
aI402696
aI452034
aI574587
aI1305219
aI2274410
aI2557703
aI3467213
aI4183714
aI4880714
aI38707353
asI574587
(lp236
I12550
aI14040
aI26654
aI29782
aI33029
aI79422
aI103946
aI108689
aI116262
aI121475
aI129139
aI147016
aI225366
aI236988
aI245580
aI272967
aI368186
aI378992
aI584044
aI695408
aI1305219
aI3467213
aI8977680
aI38707353
asI6202492
(lp237
I247857
aI307167
aI778728
aI961397
aI1001373
aI1498011
aI2451902
aI3077968
aI3088296
aI3597496
aI3822278
aI4739965
aI5298466
aI5304613
aI5779753
aI5929626
aI5973655
aI6445962
aI7263941
aI11963952
aI14929213
aI25419650
asI251010
(lp238
I12550
aI29782
aI33029
aI103946
aI106147
aI121475
aI129139
aI173743
aI245072
aI245580
aI378992
aI442348
aI1014002
aI1217215
aI1451228
aI1790522
aI2556729
aI3467213
aI11654103
asI7307
(lp239
I14497
aI33029
aI106147
aI129139
aI191750
aI438694
aI1217215
asI6096021
(lp240
I16192
aI116241
aI118018
aI368186
aI1980279
aI2025599
aI2586102
aI8977680
aI19602998
aI80773187
asI2303136
(lp241
I14497
aI14732
aI53064
aI643860
aI812530
aI979749
aI1146964
aI1481171
aI1953271
aI3121728
aI4896828
aI14578337
asI4046086
(lp242
I225366
aI248792
aI778728
aI2962653
aI3077968
aI5304613
aI5779753
aI5929626
aI6445962
aI6487287
aI6535013
aI9463224
aI11963952
aI18176768
aI19841323
aI25419650
aI89666302
asI7670954
(lp243
I18890
aI1879007
aI104153855
asI242859
(lp244
I26654
aI32754
aI33029
aI79422
aI154158
aI179839
aI252646
aI368186
aI402696
aI447828
aI695408
aI1217215
aI1819216
aI3121728
aI4183714
asI201219244
(lp245
I14497
aI189157
aI424449
aI447828
aI957225
aI1146964
aI1569590
aI1600792
aI1617387
aI1790522
aI2014403
aI5764928
aI6894801
aI12523295
aI14578337
aI114497061
asI54580398
(lp246
I248792
aI3077968
aI3088296
aI3866434
aI5779753
aI31335652
asI15543
(lp247
I231911
aI354643
aI894912
aI1300876
aI2143119
aI2247153
aI4739965
aI5547440
aI14909035
asI554168
(lp248
I12550
aI12731
aI12831
aI16192
aI16499
aI29782
aI42976
aI107525
aI108689
aI116241
aI116262
aI131832
aI146619
aI179839
aI219821
aI225535
aI231222
aI232516
aI245442
aI246757
aI246856
aI252123
aI255731
aI272967
aI282686
aI337170
aI337343
aI347811
aI393833
aI393921
aI413850
aI427483
aI452034
aI469976
aI477753
aI506045
aI580246
aI620874
aI643860
aI667007
aI731729
aI751078
aI756843
aI862812
aI957225
aI1087337
aI1217215
aI1272422
aI1486819
aI1600792
aI1602667
aI1669810
aI2044192
aI2055373
aI2129481
aI2363873
aI2532888
aI2947439
aI3029664
aI3128931
aI3441244
aI4183714
aI5062292
aI28495595
aI30529589
aI86155289
asI1004731
(lp249
I12550
aI15680
aI16537
aI131832
aI174043
aI203663
aI224954
aI346522
aI368873
aI894912
aI1057571
aI1300876
aI5547440
aI14909035
aI58634939
aI104426512
asI2014403
(lp250
I14497
aI424449
aI12523295
aI114497061
aI201219244
asI7294150
(lp251
I12550
aI12831
aI32754
aI116241
aI131832
aI179839
aI227291
aI231222
aI297987
aI368873
aI427483
aI1089916
aI1146964
aI1217215
aI1272422
aI1290449
aI1311126
aI1319342
aI1451228
aI1600792
aI1617387
aI1790522
aI1843648
aI1859310
aI1862629
aI1865623
aI1920952
aI1953271
aI2363873
aI2550258
aI2557703
aI8977680
aI30529589
aI80773187
aI85716885
asI2055373
(lp252
I12831
aI14732
aI26654
aI32754
aI42976
aI116241
aI225535
aI232516
aI245072
aI246856
aI402696
aI444659
aI551071
aI554168
aI643860
aI731729
aI1272422
aI1449294
aI1481171
aI1862629
aI6854999
aI86155289
asI6894801
(lp253
I12550
aI12831
aI15680
aI16192
aI29782
aI107525
aI108689
aI116241
aI118018
aI173743
aI179839
aI225535
aI246757
aI246856
aI272967
aI282686
aI297987
aI337343
aI347811
aI444659
aI477753
aI667007
aI751078
aI756843
aI786050
aI812530
aI862812
aI1087337
aI1146964
aI1217215
aI1234701
aI1272422
aI1290449
aI1300876
aI1319342
aI1486819
aI1669810
aI2044192
aI2992968
aI3441244
aI6854999
aI8057384
aI8613619
aI8977680
aI12325808
aI15364547
aI30529589
aI142069252
aI201219244
asI1451228
(lp254
I16192
aI123679
aI199223
aI249964
aI251010
aI260361
aI413850
aI424449
aI438694
aI452034
aI476938
aI643860
aI731729
aI756843
aI839311
aI862812
aI913926
aI1014002
aI1052361
aI1449294
aI1859310
aI1865623
aI2274410
aI3441244
aI4436783
aI5062292
aI7294150
aI8057384
aI20298303
aI80773187
aI86155289
asI2962653
(lp255
I225366
aI248792
aI778728
aI3077968
aI3425190
aI4046086
aI5929626
aI6535013
aI11963952
aI16946759
aI18176768
aI19841323
aI25419650
aI41585603
asI347685
(lp256
I12550
aI12831
aI14040
aI16192
aI29782
aI33029
aI42976
aI108689
aI116241
aI131832
aI173743
aI179839
aI206998
aI225535
aI245072
aI245442
aI252123
aI255731
aI260361
aI272967
aI282686
aI297987
aI347811
aI374836
aI393833
aI393921
aI427483
aI442348
aI444659
aI452034
aI477753
aI506045
aI580246
aI643860
aI751078
aI756843
aI786050
aI979749
aI1217215
aI1272422
aI1486819
aI1602667
aI1617387
aI1669810
aI2129481
aI2274410
aI2947439
aI3029664
aI4183714
aI15364547
aI28495595
aI30529589
aI142069252
aI150275502
asI31335652
(lp257
I172285
aI225366
aI247857
aI248792
aI778728
aI1001373
aI1864497
aI2829734
aI3077968
aI3088296
aI3395468
aI3425190
aI3822278
aI3866434
aI5779753
aI6113941
aI6445962
aI9463224
aI25419650
aI54580398
asI56401130
(lp258
I172285
aI225366
aI248792
aI307167
aI310813
aI961397
aI2582958
aI3077968
aI5929626
aI5973655
aI6139551
aI6445962
aI7263941
aI9463224
aI11963952
aI14929213
aI18176768
aI41585603
aI148413161
asI6487287
(lp259
I248792
aI778728
aI3077968
aI4046086
aI5929626
aI6113941
aI6139551
aI9463224
aI11963952
aI25419650
asI722176
(lp260
I208601
aI322822
aI503080
aI607539
aI1078218
aI2474780
aI3460023
aI3955597
aI99281206
aI162104584
aI184959418
asI118018
(lp261
I2485
aI12550
aI12831
aI14040
aI16192
aI26654
aI29782
aI32754
aI33029
aI73713
aI103946
aI106147
aI116241
aI121226
aI146933
aI147016
aI173743
aI191750
aI232516
aI246757
aI252646
aI282686
aI354643
aI368186
aI378992
aI402696
aI413850
aI413970
aI442348
aI444659
aI447828
aI452034
aI456097
aI477753
aI568916
aI584044
aI596529
aI643860
aI667007
aI862884
aI979749
aI1014002
aI1057571
aI1217215
aI1234701
aI1272422
aI1290449
aI1305219
aI1311126
aI1413623
aI1486819
aI1581198
aI1793831
aI1920952
aI1980279
aI2025599
aI2026884
aI2208595
aI2259672
aI2451360
aI2550258
aI2557703
aI2566425
aI2947439
aI3128931
aI3261098
aI3467213
aI4880714
aI6096021
aI6761218
aI6854999
aI6894801
aI8977680
aI28495595
aI30529589
aI50415954
asI322822
(lp262
I26357
aI47247
aI208601
aI503080
aI607539
aI722176
aI1385115
aI2179808
aI2474780
aI3460023
aI3610434
aI3955597
aI9638849
aI9759749
aI32250015
aI99281206
aI102169150
aI133610926
asI402696
(lp263
I12550
aI14040
aI26654
aI29782
aI32754
aI33029
aI42976
aI51134
aI79422
aI116241
aI118018
aI147016
aI154158
aI173743
aI179839
aI225535
aI232516
aI236988
aI242859
aI245072
aI245442
aI255731
aI272967
aI282686
aI287793
aI337170
aI337343
aI346522
aI368186
aI378992
aI442348
aI452034
aI477753
aI695408
aI751078
aI756843
aI862884
aI1146964
aI1217215
aI1290449
aI1305219
aI1449294
aI1486819
aI1819216
aI1984441
aI2055373
aI2259672
aI2451360
aI3467213
aI3944383
aI5543358
aI8977680
aI38707353
asI7427344
(lp264
I337170
aI965061
aI1150510
aI2550258
aI5287258
aI5547440
aI86155289
asI337170
(lp265
I12550
aI12731
aI12831
aI16192
aI29782
aI32754
aI33029
aI42976
aI107525
aI108689
aI116241
aI116262
aI131832
aI179839
aI219821
aI225535
aI231222
aI232516
aI245072
aI245442
aI246856
aI252123
aI255731
aI260361
aI272967
aI282686
aI297987
aI337343
aI368186
aI393833
aI402696
aI413850
aI427483
aI452034
aI469976
aI477753
aI506045
aI554168
aI620874
aI643860
aI751078
aI756843
aI786050
aI862884
aI1087337
aI1089916
aI1146964
aI1217215
aI1272422
aI1311126
aI1319342
aI1581198
aI1617387
aI1865623
aI2259672
aI2947439
aI2992968
aI3441244
aI6761218
aI7427344
aI12325808
aI15364547
aI30529589
aI142069252
asI1600792
(lp266
I12550
aI12831
aI15680
aI16192
aI29782
aI42976
aI116241
aI123679
aI245442
aI255731
aI347811
aI368186
aI424449
aI442348
aI444659
aI452034
aI554168
aI667007
aI731729
aI862812
aI957225
aI1089916
aI1217215
aI1272422
aI1290449
aI1311126
aI1319342
aI1581198
aI1790522
aI1843648
aI1862629
aI1865832
aI1920952
aI1953271
aI2129481
aI2363873
aI2550258
aI2947439
aI2992968
aI5287258
aI5547440
aI6854999
aI7294150
aI8057384
aI8741997
aI30529589
aI80773187
aI85716885
aI201219244
asI666907
(lp267
sI503080
(lp268
I47247
aI208601
aI322822
aI607539
aI722176
aI1385115
aI2179808
aI2474780
aI3460023
aI3955597
aI9638849
aI9759749
aI99281206
aI102169150
aI162104584
aI184959418
asI945031
(lp269
I2485
aI667007
aI1080117
aI2947439
aI7259942
asI1762606
(lp270
I16192
aI146933
aI243998
aI246757
aI260361
aI476938
aI477753
aI510265
aI667007
aI786050
aI1272422
aI1575285
aI1602667
aI1669810
aI1971991
aI4183714
aI43899980
aI80773187
aI150275502
asI607539
(lp271
I208601
aI322822
aI503080
aI722176
aI1078218
aI1385115
aI2179808
aI2474780
aI3460023
aI3610434
aI3955597
aI9638849
aI9759749
aI32250015
aI99281206
aI102169150
aI133610926
aI162104584
asI14929213
(lp272
I172285
aI248792
aI310813
aI1498011
aI3077968
aI5929626
aI5973655
aI6202492
aI6535013
aI7263941
aI11963952
aI16946759
aI18176768
aI25419650
aI41585603
aI56401130
aI89666302
asI15680
(lp273
I12550
aI12731
aI14497
aI16192
aI16499
aI29782
aI106147
aI116241
aI179839
aI203663
aI224954
aI231222
aI282686
aI368873
aI413850
aI424449
aI452034
aI477753
aI506045
aI551071
aI731729
aI756843
aI894912
aI1004731
aI1217215
aI1272422
aI1300876
aI1319342
aI1600792
aI1790522
aI1862629
aI2129481
aI2363873
aI2947439
aI3441244
aI5062292
aI5547440
aI6894801
aI14909035
aI30529589
asI808258
(lp274
I1217215
aI2143119
asI5969229
(lp275
I438694
aI1305219
aI1617387
aI1968451
aI8541221
aI12094098
aI52762908
asI1449294
(lp276
I16192
aI51134
aI131832
aI219821
aI227291
aI232516
aI272967
aI297987
aI402696
aI469976
aI476938
aI786050
aI862812
aI862884
aI913926
aI1014002
aI1057571
aI1311126
aI1451228
aI1602667
aI1617387
aI2055373
aI2208595
aI2247153
aI2451360
aI3859394
aI4619115
aI5062292
aI5287258
aI5298466
aI7073994
aI7848381
aI8057384
aI8741997
aI9593425
aI11442505
aI54412957
aI80773187
asI245072
(lp277
I12550
aI12731
aI12831
aI14040
aI16192
aI26654
aI29782
aI32754
aI33029
aI42976
aI79422
aI103946
aI106147
aI116241
aI121226
aI121475
aI129139
aI131832
aI146933
aI147016
aI173743
aI179839
aI206998
aI219821
aI225366
aI225535
aI231222
aI232516
aI245442
aI245580
aI246757
aI246856
aI251010
aI252123
aI255731
aI260361
aI272967
aI282686
aI297987
aI337170
aI337343
aI346522
aI347685
aI347811
aI368186
aI378992
aI393833
aI393921
aI402696
aI427483
aI444659
aI452034
aI456097
aI469976
aI477753
aI580246
aI620874
aI643860
aI695408
aI751078
aI756843
aI786050
aI862884
aI1217215
aI1272422
aI1305219
aI1319342
aI1486819
aI1669810
aI1819216
aI2044192
aI2055373
aI2129481
aI2947439
aI3944383
aI6761218
aI8977680
aI12325808
aI15364547
aI30529589
aI38707353
asI447828
(lp278
I12550
aI29782
aI33029
aI118018
aI173743
aI242859
aI347811
aI368186
aI427483
aI452034
aI574461
aI751078
aI862884
aI1217215
aI1486819
aI2451360
aI3467213
aI8977680
aI50415954
aI201219244
asI1035606
(lp279
I77515
aI154158
aI236988
aI247857
aI307167
aI310813
aI808429
aI961397
aI1001373
aI1498011
aI1984441
aI2078363
aI2582958
aI3077968
aI3088296
aI3597496
aI3866434
aI4619115
aI4739965
aI5779753
aI6445962
aI9463224
aI11963952
aI25419650
asI5287258
(lp280
I12550
aI12831
aI14040
aI42976
aI116241
aI179839
aI227291
aI234012
aI354643
aI452034
aI1089916
aI1146964
aI1217215
aI1290449
aI1300876
aI1449294
aI1486819
aI1569590
aI1581198
aI1600792
aI1617387
aI1843648
aI1920952
aI2025599
aI2550258
aI3540368
aI4145607
aI4650856
aI5298466
aI5547440
aI7073994
aI7427344
aI7848381
aI8057384
aI8741997
aI8977680
aI11442505
aI12523295
aI14578337
aI17549084
aI40360738
aI144624416
asI203663
(lp281
I12550
aI14497
aI15680
aI16192
aI16499
aI103946
aI123679
aI224954
aI246856
aI297987
aI368873
aI476938
aI751078
aI894912
aI957225
aI1004731
aI1052361
aI1057571
aI1217215
aI1300876
aI1790522
aI1865623
aI2129481
aI2274410
aI5547440
aI14909035
aI150275502
asI10497385
(lp282
I147016
aI1481171
aI1617387
aI1953271
aI12094098
aI52762908
asI662903
(lp283
I33029
aI54710
aI73713
aI163830
aI368186
aI491718
aI596529
aI868346
aI1057571
aI1217215
aI1272422
aI1581198
aI1980279
aI2566425
aI5547440
asI30899759
(lp284
I2348564
aI43899980
asI667007
(lp285
I2485
aI12550
aI14040
aI14497
aI16192
aI26654
aI29782
aI106147
aI116241
aI116262
aI118018
aI129789
aI131832
aI146619
aI146933
aI179839
aI224954
aI231222
aI243998
aI245442
aI246757
aI255731
aI260361
aI272967
aI282686
aI297987
aI337343
aI368186
aI378992
aI393833
aI469976
aI476938
aI477753
aI506045
aI510265
aI554168
aI568916
aI580246
aI643860
aI751078
aI756843
aI786050
aI812530
aI862812
aI945031
aI1057571
aI1080117
aI1146964
aI1217215
aI1272422
aI1311126
aI1374671
aI1412942
aI1486819
aI1569590
aI1600792
aI1602667
aI1669810
aI1762606
aI1971991
aI2363873
aI2774961
aI2947439
aI2992968
aI3077968
aI3441244
aI4183714
aI5062292
aI5833180
aI6894801
aI7259942
aI7848381
aI8057384
aI8741997
aI11654103
aI15364547
aI24467145
aI28495595
aI30529589
aI43899980
aI80773187
aI142069252
aI150275502
asI2026884
(lp286
I118018
aI173743
aI438694
aI444659
aI957225
aI1413623
aI2025599
aI2947439
aI3261098
aI4880714
aI12523295
aI50415954
asI3540368
(lp287
I12550
aI12831
aI53064
aI116241
aI227291
aI231222
aI452034
aI979749
aI1146964
aI1581198
aI1920952
aI2550258
aI2586102
aI4145607
aI5062292
aI5287258
aI5298466
aI5547440
aI7073994
aI8057384
aI8741997
aI11442505
aI17549084
asI3331477
(lp288
I12550
aI2557703
aI4436783
asI59895193
(lp289
sI974240
(lp290
I1875558
aI2348564
aI2774961
aI8869494
aI10541837
aI43899980
asI456097
(lp291
I12550
aI29782
aI79422
aI106147
aI118018
aI121226
aI173743
aI245072
aI272967
aI1413623
aI2556729
aI8977680
aI12325808
asI96515490
(lp292
sI54611363
(lp293
I14497
aI4650856
aI8357895
aI17549084
aI19602998
asI2829734
(lp294
I247857
aI248792
aI778728
aI1864497
aI3077968
aI3395468
aI3822278
aI6113941
aI6445962
aI9463224
aI31335652
asI3515818
(lp295
I42976
aI116241
aI4183714
asI133610926
(lp296
I322822
aI607539
aI1385115
aI2474780
aI3460023
aI3955597
aI29237969
aI32250015
aI99281206
aI102169150
asI5547440
(lp297
I9852
aI12550
aI12831
aI14497
aI14732
aI15543
aI15680
aI16192
aI16499
aI29782
aI73713
aI108689
aI116241
aI163830
aI199223
aI203663
aI224954
aI227291
aI235795
aI243998
aI249964
aI272967
aI347811
aI368186
aI368873
aI393833
aI476938
aI551071
aI574461
aI596529
aI662903
aI751078
aI862812
aI894912
aI1004731
aI1014002
aI1052361
aI1057571
aI1089916
aI1146964
aI1217215
aI1234701
aI1300876
aI1319689
aI1581198
aI1600792
aI1669810
aI1859310
aI1862629
aI1865623
aI1920952
aI1980279
aI2129481
aI3540368
aI3859394
aI5062292
aI5287258
aI6761218
aI7073994
aI7427344
aI8057384
aI8741997
aI14909035
aI28495595
aI54412957
aI86155289
aI104426512
aI142069252
aI150275502
asI444659
(lp298
I12550
aI12831
aI32754
aI73713
aI79422
aI116241
aI118018
aI173743
aI179839
aI206998
aI245072
aI245442
aI297987
aI347685
aI354643
aI413970
aI477753
aI580246
aI643860
aI731729
aI751078
aI786050
aI957225
aI979749
aI1057571
aI1089916
aI1272422
aI1290449
aI1311126
aI1481171
aI1600792
aI1790522
aI1793831
aI1862629
aI1920952
aI1980279
aI2026884
aI2055373
aI2363873
aI2451360
aI2557703
aI2947439
aI6854999
aI6894801
aI8977680
aI30529589
aI50415954
aI80773187
asI54710
(lp299
I9852
aI73713
aI95831
aI163830
aI368186
aI662903
aI868346
aI1217215
aI1581198
aI1980279
asI9463224
(lp300
I225366
aI248792
aI307167
aI310813
aI778728
aI1035606
aI1498011
aI1864497
aI2829734
aI3077968
aI3395468
aI3425190
aI3822278
aI3866434
aI4046086
aI4417371
aI5929626
aI6113941
aI6139551
aI6445962
aI6487287
aI6535013
aI11963952
aI18176768
aI31335652
aI41585603
aI56401130
aI89666302
asI236988
(lp301
I12550
aI29782
aI33029
aI79422
aI147016
aI225366
aI368186
aI378992
aI402696
aI574587
aI695408
aI1035606
aI1305219
aI2078363
aI2274410
aI2557703
aI38707353
aI50415954
asI5543358
(lp302
I14040
aI402696
aI442348
asI337343
(lp303
I12550
aI12731
aI16192
aI26654
aI29782
aI32754
aI33029
aI79422
aI116241
aI121475
aI131832
aI147016
aI179839
aI219821
aI225535
aI245072
aI245442
aI245580
aI246757
aI246856
aI255731
aI260361
aI272967
aI282686
aI297987
aI337170
aI368186
aI393833
aI393921
aI402696
aI424449
aI427483
aI452034
aI469976
aI477753
aI506045
aI523317
aI554168
aI620874
aI667007
aI751078
aI756843
aI1087337
aI1146964
aI1217215
aI1272422
aI1311126
aI1319342
aI1486819
aI1602667
aI1669810
aI2947439
aI3261098
aI3441244
aI6894801
aI8977680
aI12325808
aI15364547
aI30529589
aI38707353
aI86155289
aI142069252
asI452034
(lp304
I12550
aI12731
aI12831
aI14040
aI15680
aI16192
aI16499
aI29782
aI42976
aI116241
aI116262
aI118018
aI121475
aI131832
aI173743
aI179839
aI219821
aI225535
aI227291
aI231222
aI232516
aI245072
aI245442
aI252123
aI255731
aI260361
aI282686
aI337170
aI337343
aI347685
aI347811
aI393921
aI402696
aI413850
aI427483
aI442348
aI447828
aI469976
aI477753
aI506045
aI554168
aI580246
aI643860
aI695408
aI731729
aI751078
aI756843
aI839311
aI862884
aI957225
aI1087337
aI1146964
aI1217215
aI1272422
aI1290449
aI1311126
aI1319342
aI1413623
aI1451228
aI1581198
aI1600792
aI1617387
aI1862629
aI1920952
aI2259672
aI2363873
aI2566425
aI3441244
aI3540368
aI5062292
aI5287258
aI8057384
aI8541221
aI8613619
aI15364547
aI30529589
aI42166037
aI142069252
asI427483
(lp305
I12550
aI12831
aI16192
aI16499
aI29782
aI42976
aI107525
aI116241
aI116262
aI129139
aI131832
aI179839
aI219821
aI225535
aI245072
aI252123
aI255731
aI282686
aI297987
aI337170
aI337343
aI347685
aI393921
aI413850
aI447828
aI452034
aI469976
aI523317
aI554168
aI580246
aI620874
aI643860
aI756843
aI1217215
aI1290449
aI1413623
aI1581198
aI3029664
aI3441244
aI4183714
aI7294150
aI13125304
aI30529589
asI1719780
(lp306
I47247
aI2474780
aI3460023
aI29237969
aI32250015
asI751078
(lp307
I12550
aI12731
aI12831
aI16192
aI29782
aI32754
aI33029
aI79422
aI108689
aI116241
aI131832
aI179839
aI203663
aI219821
aI225535
aI231222
aI245072
aI246757
aI246856
aI252123
aI255731
aI272967
aI282686
aI337170
aI337343
aI347685
aI368186
aI393833
aI393921
aI402696
aI444659
aI447828
aI452034
aI477753
aI506045
aI554168
aI580246
aI643860
aI667007
aI756843
aI862812
aI894912
aI1052361
aI1089916
aI1146964
aI1217215
aI1272422
aI1290449
aI1300876
aI1311126
aI1319342
aI1581198
aI1602667
aI1669810
aI1793831
aI1862629
aI1865623
aI1865832
aI1968451
aI2129481
aI2274410
aI2557703
aI2947439
aI2992968
aI3441244
aI3467213
aI4183714
aI5062292
aI5547440
aI6761218
aI6894801
aI8057384
aI13125304
aI14909035
aI15364547
aI28495595
aI30529589
aI80773187
aI142069252
aI149287848
asI9593425
(lp308
I476938
aI862812
aI913926
aI1014002
aI1057571
aI1311126
aI1449294
aI1581198
aI4619115
aI5298466
aI7848381
aI8057384
aI11442505
aI18353899
aI40360738
aI54412957
aI80773187
asI1617387
(lp309
I12831
aI14040
aI14497
aI14732
aI32754
aI42976
aI179839
aI184197
aI189157
aI206998
aI227291
aI337170
aI347685
aI424449
aI452034
aI462843
aI580246
aI812530
aI979749
aI1089916
aI1146964
aI1290449
aI1311126
aI1449294
aI1569590
aI1843648
aI1859310
aI1920952
aI1953271
aI1968451
aI2259672
aI2992968
aI3121728
aI5287258
aI5969229
aI7294150
aI8541221
aI10497385
aI11442505
aI12094098
aI14578337
aI15364547
aI20298303
aI40360738
aI52762908
aI144624416
aI201219244
asI808429
(lp310
I231911
aI307167
aI1035606
aI1498011
aI1984441
aI2078363
aI2143119
aI2249344
aI4619115
asI2878960
(lp311
I568916
asI812530
(lp312
I12550
aI14497
aI14732
aI34464
aI53064
aI179839
aI184197
aI189157
aI191750
aI243998
aI252646
aI410023
aI413970
aI424449
aI426989
aI574461
aI667007
aI1146964
aI1290449
aI1486819
aI1569590
aI1602667
aI1617387
aI1859310
aI1920952
aI1953271
aI1968451
aI2303136
aI2550258
aI2566425
aI3121728
aI4145607
aI4896828
aI5764928
aI6894801
aI12356227
aI12523295
aI14578337
aI15364547
aI20298303
aI26910255
aI43899980
asI146933
(lp313
I12550
aI12831
aI14040
aI16192
aI26654
aI32754
aI42976
aI116241
aI118018
aI123679
aI131832
aI139273
aI225535
aI231222
aI243998
aI245072
aI245442
aI246757
aI252123
aI260361
aI297987
aI346522
aI347811
aI368186
aI393921
aI442348
aI491718
aI510265
aI667007
aI786050
aI862812
aI913926
aI957225
aI1217215
aI1234701
aI1272422
aI1319342
aI1486819
aI1575285
aI1581198
aI1602667
aI1669810
aI1762606
aI1980279
aI2025599
aI2259672
aI2274410
aI2566425
aI2947439
aI3128931
aI4183714
aI6761218
aI30529589
aI50415954
aI80773187
aI150275502
asI2586102
(lp314
I16192
aI116241
aI131832
aI227291
aI957225
aI2566425
aI3128931
aI3540368
aI6096021
aI8057384
asI1953271
(lp315
I14497
aI14732
aI32754
aI33029
aI79422
aI116241
aI179839
aI184197
aI189157
aI191750
aI252646
aI368186
aI424449
aI574461
aI812530
aI957225
aI1146964
aI1217215
aI1290449
aI1319342
aI1569590
aI1600792
aI1617387
aI1862629
aI1920952
aI1968451
aI2259672
aI2303136
aI2550258
aI3121728
aI4650856
aI7294150
aI10497385
aI12094098
aI12356227
aI14578337
aI15364547
aI25891526
aI26910255
aI43899980
aI114497061
asI142069252
(lp316
I12550
aI29782
aI179839
aI225535
aI231222
aI245442
aI246757
aI260361
aI272967
aI282686
aI337170
aI337343
aI347685
aI347811
aI393833
aI452034
aI469976
aI477753
aI506045
aI667007
aI751078
aI1087337
aI1146964
aI1217215
aI1272422
aI1308504
aI1412942
aI1486819
aI1602667
aI1669810
aI2416465
aI3441244
aI5547440
aI6894801
aI12356227
aI15364547
aI28495595
aI30529589
aI42166037
aI150275502
asI103946
(lp317
I14040
aI26654
aI29782
aI33029
aI79422
aI106147
aI118018
aI121475
aI129139
aI129290
aI131832
aI147016
aI173743
aI203663
aI225366
aI245072
aI245442
aI245580
aI251010
aI252646
aI272967
aI282686
aI287793
aI368186
aI378992
aI393921
aI574587
aI584044
aI894912
aI1272422
aI1305219
aI1790522
aI3467213
aI6761218
aI8977680
aI38707353
asI116241
(lp318
I12550
aI12731
aI12831
aI14040
aI14497
aI15680
aI16192
aI16499
aI26654
aI29782
aI32754
aI33029
aI42976
aI79422
aI106147
aI108689
aI116262
aI118018
aI123679
aI129139
aI131832
aI139273
aI146619
aI146933
aI173743
aI174043
aI179839
aI199223
aI206998
aI219821
aI225535
aI227291
aI231222
aI232516
aI243998
aI245072
aI245442
aI246757
aI246856
aI252123
aI255731
aI260361
aI272967
aI282686
aI297987
aI337170
aI337343
aI346522
aI347685
aI347811
aI368186
aI393833
aI393921
aI402696
aI413850
aI424449
aI427483
aI438694
aI442348
aI444659
aI452034
aI469976
aI477753
aI506045
aI554168
aI580246
aI643860
aI667007
aI731729
aI751078
aI786050
aI862812
aI862884
aI957225
aI1014002
aI1057571
aI1087337
aI1089916
aI1146964
aI1217215
aI1272422
aI1290449
aI1300876
aI1308504
aI1311126
aI1319342
aI1319689
aI1486819
aI1581198
aI1600792
aI1602667
aI1669810
aI1790522
aI1793831
aI1843648
aI1859310
aI1862629
aI1953271
aI1980279
aI1984441
aI2025599
aI2044192
aI2055373
aI2129481
aI2259672
aI2363873
aI2557703
aI2566425
aI2586102
aI2947439
aI2992968
aI3077968
aI3441244
aI3515818
aI3540368
aI4145607
aI5287258
aI5547440
aI6096021
aI6761218
aI6894801
aI7294150
aI8057384
aI8741997
aI12325808
aI20298303
aI28495595
aI30529589
aI50415954
aI55088817
aI80773187
aI86155289
asI2348564
(lp319
I974240
aI1602667
aI1875558
aI2774961
aI8869494
aI10541837
aI30899759
aI43899980
asI2532888
(lp320
I12550
aI107525
aI108689
aI225535
aI232516
aI246757
aI246856
aI477753
aI554168
aI580246
aI643860
aI1217215
aI1486819
aI1669810
aI3029664
aI28495595
asI310813
(lp321
I26654
aI77515
aI154158
aI307167
aI961397
aI1001373
aI1035606
aI1498011
aI2582958
aI3077968
aI3088296
aI3597496
aI3866434
aI4739965
aI5779753
aI5929626
aI6445962
aI9463224
aI11963952
aI14929213
aI18176768
aI25419650
aI56401130
asI191750
(lp322
I7307
aI14497
aI14732
aI118018
aI179839
aI252646
aI424449
aI426989
aI812530
aI1146964
aI1953271
asI116262
(lp323
I16192
aI116241
aI139273
aI146619
aI179839
aI219821
aI225535
aI231222
aI246757
aI246856
aI255731
aI260361
aI272967
aI297987
aI337170
aI427483
aI452034
aI469976
aI554168
aI574587
aI580246
aI620874
aI643860
aI667007
aI756843
aI786050
aI1087337
aI1217215
aI1602667
aI2947439
aI3128931
aI3441244
aI4436783
aI5062292
asI862812
(lp324
I12550
aI12831
aI16192
aI29782
aI107525
aI116241
aI131832
aI146933
aI179839
aI199223
aI206998
aI224954
aI243998
aI255731
aI260361
aI368873
aI393833
aI469976
aI476938
aI477753
aI510265
aI523317
aI554168
aI667007
aI731729
aI751078
aI756843
aI786050
aI913926
aI1014002
aI1146964
aI1217215
aI1272422
aI1449294
aI1451228
aI1486819
aI1600792
aI1602667
aI1669810
aI1971991
aI2947439
aI3128931
aI3441244
aI4183714
aI5062292
aI5547440
aI6894801
aI8057384
aI9593425
aI11442505
aI15364547
aI30529589
aI54412957
aI80773187
aI150275502
asI1150510
(lp325
I51134
aI462843
aI7427344
asI26910255
(lp326
I14497
aI14732
aI812530
aI1146964
aI1953271
aI5062292
aI5764928
asI11963952
(lp327
I225366
aI248792
aI307167
aI310813
aI778728
aI961397
aI1035606
aI1498011
aI2962653
aI3077968
aI3822278
aI3866434
aI4046086
aI4739965
aI5304613
aI5929626
aI6139551
aI6202492
aI6487287
aI6535013
aI7263941
aI9463224
aI14929213
aI16946759
aI18176768
aI19841323
aI25419650
aI41585603
aI56401130
aI89666302
asI162104584
(lp328
I503080
aI607539
aI722176
aI1385115
aI3955597
aI99281206
aI184959418
asI19602998
(lp329
I14497
aI179839
aI189157
aI424449
aI1311126
aI1498011
aI1569590
aI1859310
aI2143119
aI2247153
aI2898571
aI3261098
aI3597496
aI4145607
aI4619115
aI4650856
aI6096021
aI8057384
aI12523295
aI17549084
aI40360738
aI54611363
aI86155289
asI368186
(lp330
I9852
aI12550
aI14040
aI26654
aI29782
aI32754
aI33029
aI54710
aI73713
aI79422
aI103946
aI116241
aI118018
aI121475
aI129139
aI131832
aI146933
aI147016
aI154158
aI163830
aI173743
aI199223
aI225535
aI235795
aI236988
aI242859
aI243998
aI245072
aI245442
aI246757
aI249964
aI252646
aI287793
aI337170
aI337343
aI347811
aI378992
aI402696
aI438694
aI447828
aI491718
aI551071
aI574587
aI596529
aI662903
aI667007
aI695408
aI751078
aI868346
aI1052361
aI1089916
aI1217215
aI1234701
aI1305219
aI1319342
aI1319689
aI1581198
aI1600792
aI1819216
aI1865623
aI1953271
aI1968451
aI1980279
aI2025599
aI2259672
aI2557703
aI2566425
aI2947439
aI5547440
aI6096021
aI6761218
aI8977680
aI15364547
aI38707353
asI79422
(lp331
I12550
aI26654
aI29782
aI32754
aI33029
aI103946
aI116241
aI121226
aI121475
aI129139
aI147016
aI154158
aI173743
aI225366
aI225535
aI236988
aI242859
aI245072
aI245442
aI245580
aI252646
aI272967
aI337343
aI368186
aI378992
aI402696
aI444659
aI456097
aI574587
aI584044
aI695408
aI751078
aI1305219
aI1819216
aI1953271
aI2259672
aI2566425
aI3467213
aI8977680
aI38707353
asI16946759
(lp332
I172285
aI248792
aI778728
aI2962653
aI3077968
aI5929626
aI5973655
aI6535013
aI11963952
aI14929213
aI18176768
aI19841323
asI147016
(lp333
I12550
aI14040
aI16192
aI26654
aI29782
aI33029
aI79422
aI103946
aI118018
aI121226
aI121475
aI129139
aI154158
aI173743
aI236988
aI245072
aI245442
aI245580
aI246757
aI272967
aI287793
aI337343
aI368186
aI378992
aI402696
aI574587
aI584044
aI695408
aI1146964
aI1305219
aI1819216
aI1862629
aI2274410
aI2451360
aI2557703
aI3467213
aI4880714
aI5062292
aI8977680
aI10497385
aI15364547
aI30529589
aI38707353
asI2129481
(lp334
I12550
aI12831
aI15680
aI16192
aI29782
aI42976
aI116241
aI131832
aI179839
aI203663
aI206998
aI225535
aI245072
aI252123
aI272967
aI282686
aI346522
aI347685
aI393833
aI393921
aI469976
aI477753
aI506045
aI554168
aI620874
aI751078
aI786050
aI1089916
aI1146964
aI1217215
aI1272422
aI1290449
aI1319342
aI1600792
aI1862629
aI1920952
aI2363873
aI2550258
aI2992968
aI3441244
aI4183714
aI5062292
aI5547440
aI15364547
aI20298303
aI30529589
aI40360738
aI42166037
asI568916
(lp335
I2485
aI14497
aI16192
aI34464
aI106147
aI118018
aI179839
aI207269
aI243998
aI506045
aI667007
aI1080117
aI1217215
aI1272422
aI1374671
aI1971991
aI2878960
aI3077968
aI3441244
aI3524644
aI4183714
aI7259942
aI13984575
aI24467145
aI30529589
aI43899980
asI95831
(lp336
I9216
aI12550
aI54710
asI8977680
(lp337
I12550
aI16192
aI26654
aI29782
aI33029
aI79422
aI103946
aI118018
aI121226
aI121475
aI129139
aI147016
aI173743
aI225366
aI245072
aI245442
aI245580
aI246757
aI272967
aI337343
aI354643
aI368186
aI378992
aI402696
aI444659
aI447828
aI456097
aI574587
aI584044
aI862884
aI1057571
aI1217215
aI1234701
aI1305219
aI1311126
aI1980279
aI2363873
aI2451360
aI2556729
aI3467213
aI4880714
aI5287258
aI6096021
aI6894801
aI7294150
aI15364547
aI38707353
aI50415954
asI3128931
(lp338
I16192
aI116262
aI118018
aI146619
aI146933
aI243998
aI260361
aI554168
aI580246
aI756843
aI786050
aI862812
aI957225
aI1014002
aI1602667
aI2025599
aI2208595
aI2550258
aI2566425
aI2586102
aI3441244
aI3859394
aI5062292
aI6854999
aI8057384
aI80773187
aI150275502
asI3423846
(lp339
I1879007
aI4418533
aI25352498
aI55698338
aI104153855
aI229491157
aI241641655
asI1875558
(lp340
I974240
aI2348564
aI2774961
aI8869494
aI10541837
aI30899759
aI43899980
asI67066812
(lp341
I2456455
aI104153855
asI14909035
(lp342
I15543
aI15680
aI16192
aI16499
aI203663
aI368873
aI751078
aI839311
aI1004731
aI1300876
aI1859310
aI1865623
aI5062292
aI5547440
asI8869494
(lp343
I974240
aI1875558
aI2348564
aI2774961
aI10541837
aI43899980
asI9852
(lp344
I54710
aI73713
aI199223
aI235795
aI368186
aI438694
aI491718
aI596529
aI1319689
aI1581198
aI5547440
asI179839
(lp345
I12550
aI12731
aI12831
aI14040
aI14497
aI14732
aI15680
aI16192
aI16499
aI29782
aI32754
aI42976
aI107525
aI116241
aI116262
aI123679
aI131832
aI139273
aI184197
aI189157
aI191750
aI199223
aI206998
aI219821
aI225535
aI231222
aI232516
aI242859
aI245072
aI245442
aI246757
aI249964
aI252123
aI255731
aI260361
aI282686
aI337170
aI337343
aI346522
aI347685
aI393833
aI402696
aI424449
aI427483
aI438694
aI442348
aI444659
aI452034
aI469976
aI477753
aI506045
aI554168
aI568916
aI580246
aI620874
aI643860
aI667007
aI731729
aI751078
aI756843
aI786050
aI812530
aI862812
aI862884
aI957225
aI1087337
aI1146964
aI1217215
aI1272422
aI1290449
aI1300876
aI1311126
aI1413623
aI1486819
aI1569590
aI1581198
aI1617387
aI1669810
aI1793831
aI1843648
aI1859310
aI1862629
aI1920952
aI1953271
aI2044192
aI2129481
aI2274410
aI2363873
aI2550258
aI2566425
aI2947439
aI3441244
aI4145607
aI4436783
aI5062292
aI5287258
aI5764928
aI6761218
aI6894801
aI7294150
aI8613619
aI8741997
aI11442505
aI14578337
aI15364547
aI19602998
aI20298303
aI25891526
aI30529589
aI42166037
aI58634939
aI86155289
aI142069252
aI144624416
aI150275502
asI786050
(lp346
I12550
aI12731
aI12831
aI16192
aI29782
aI42976
aI116241
aI116262
aI123679
aI131832
aI146933
aI179839
aI219821
aI225535
aI231222
aI243998
aI245072
aI245442
aI246757
aI252123
aI260361
aI272967
aI282686
aI297987
aI337170
aI347685
aI393833
aI393921
aI424449
aI444659
aI476938
aI477753
aI506045
aI510265
aI580246
aI667007
aI756843
aI862812
aI913926
aI1014002
aI1146964
aI1217215
aI1272422
aI1311126
aI1412942
aI1449294
aI1575285
aI1602667
aI1669810
aI1762606
aI1793831
aI1865623
aI1865832
aI1971991
aI2129481
aI2259672
aI2947439
aI2992968
aI3128931
aI3441244
aI3859394
aI6894801
aI8057384
aI8613619
aI30529589
aI80773187
aI86155289
aI150275502
asI50081416
(lp347
I246856
aI1669810
aI54412957
asI3890831
(lp348
I208601
asI5062292
(lp349
I12550
aI12731
aI15680
aI16192
aI16537
aI116262
aI131832
aI146619
aI147016
aI179839
aI219821
aI225535
aI246757
aI246856
aI255731
aI260361
aI272967
aI378992
aI452034
aI469976
aI523317
aI554168
aI620874
aI667007
aI751078
aI862812
aI1014002
aI1052361
aI1146964
aI1217215
aI1319342
aI1449294
aI1451228
aI1581198
aI1865623
aI2129481
aI2208595
aI2363873
aI3128931
aI3441244
aI3467213
aI3540368
aI3859394
aI4183714
aI4436783
aI4619115
aI5298466
aI5547440
aI7073994
aI7848381
aI8741997
aI11442505
aI14909035
aI26910255
aI54412957
asI5973655
(lp350
I172285
aI3077968
aI3597496
aI5929626
aI6202492
aI7263941
aI14929213
aI16946759
aI56401130
asI54412957
(lp351
I246856
aI297987
aI476938
aI862812
aI1014002
aI1311126
aI1449294
aI1581198
aI2363873
aI2992968
aI3859394
aI5062292
aI5298466
aI5547440
aI7848381
aI8057384
aI9593425
aI11442505
aI50081416
aI80773187
aI150275502
asI6139551
(lp352
I248792
aI778728
aI3077968
aI3822278
aI5929626
aI6487287
aI6535013
aI9463224
aI11963952
aI56401130
asI34464
(lp353
I2485
aI14497
aI14732
aI243998
aI568916
aI812530
aI1146964
aI3077968
asI4183714
(lp354
I12550
aI16192
aI29782
aI146933
aI219821
aI231222
aI232516
aI242859
aI243998
aI246757
aI246856
aI255731
aI260361
aI272967
aI297987
aI347685
aI427483
aI469976
aI477753
aI523317
aI554168
aI568916
aI667007
aI695408
aI751078
aI756843
aI862812
aI1217215
aI1319342
aI1602667
aI1669810
aI1762606
aI2129481
aI3441244
aI3515818
aI5062292
aI28495595
aI30529589
aI150275502
asI106147
(lp355
I7307
aI12831
aI14040
aI15680
aI16192
aI26654
aI29782
aI33029
aI103946
aI116241
aI118018
aI121226
aI121475
aI129139
aI129290
aI131832
aI225535
aI243998
aI245072
aI251010
aI272967
aI378992
aI393921
aI442348
aI456097
aI477753
aI568916
aI584044
aI667007
aI862884
aI957225
aI1217215
aI1272422
aI1305219
aI2259672
aI2947439
aI3441244
aI6761218
aI7259942
aI11654103
asI173743
(lp356
I12550
aI14040
aI26654
aI29782
aI33029
aI79422
aI103946
aI116241
aI118018
aI121226
aI121475
aI147016
aI154158
aI242859
aI245072
aI245442
aI245580
aI251010
aI287793
aI346522
aI347685
aI347811
aI354643
aI368186
aI378992
aI402696
aI442348
aI444659
aI447828
aI452034
aI456097
aI584044
aI695408
aI862884
aI1057571
aI1217215
aI1234701
aI1305219
aI1311126
aI1413623
aI1486819
aI1581198
aI1669810
aI1793831
aI1819216
aI1980279
aI2025599
aI2026884
aI2208595
aI2451360
aI2556729
aI2557703
aI2947439
aI3261098
aI3467213
aI4880714
aI6854999
aI6894801
aI8977680
aI11654103
aI38707353
aI50415954
aI149287848
asI55088817
(lp357
I12550
aI12831
aI116241
aI131832
aI245442
aI346522
aI2566425
aI6761218
asI224954
(lp358
I12550
aI15680
aI199223
aI203663
aI260361
aI368873
aI476938
aI510265
aI667007
aI862812
aI894912
aI1004731
aI1014002
aI1057571
aI1217215
aI1300876
aI1319342
aI1412942
aI1602667
aI1790522
aI1971991
aI5547440
aI5833180
aI8741997
aI150275502
asI7263941
(lp359
I172285
aI778728
aI3077968
aI5929626
aI5973655
aI6202492
aI6445962
aI11963952
aI14929213
aI18176768
aI19841323
aI41585603
aI56401130
aI89666302
asI1052361
(lp360
I12550
aI16192
aI199223
aI203663
aI249964
aI347811
aI368186
aI368873
aI413850
aI424449
aI438694
aI491718
aI731729
aI751078
aI1217215
aI1319342
aI1319689
aI1451228
aI1581198
aI1865623
aI3261098
aI5062292
aI5547440
aI86155289
asI77515
(lp361
I307167
aI310813
aI778728
aI961397
aI1001373
aI1035606
aI1738618
aI2582958
aI3077968
aI3088296
aI3866434
aI4739965
aI5779753
aI5929626
aI6445962
aI25419650
asI14040
(lp362
I12550
aI12831
aI26654
aI33029
aI42976
aI103946
aI106147
aI116241
aI118018
aI131832
aI139273
aI146933
aI147016
aI173743
aI179839
aI245072
aI245442
aI346522
aI347685
aI368186
aI402696
aI442348
aI452034
aI477753
aI574587
aI667007
aI1217215
aI1272422
aI1290449
aI1486819
aI1617387
aI1843648
aI2557703
aI2947439
aI3944383
aI5287258
aI5543358
aI30529589
aI38707353
asI208601
(lp363
I322822
aI503080
aI607539
aI722176
aI1385115
aI2474780
aI3460023
aI3610434
aI3890831
aI3955597
aI9638849
aI9759749
aI32250015
aI99281206
aI184959418
asI18353899
(lp364
I12550
aI574461
aI1311126
aI1319342
aI1581198
aI1920952
aI2363873
aI2451902
aI4145607
aI7848381
aI8741997
aI9593425
aI17549084
aI43759484
aI85716885
aI144624416
asI1859310
(lp365
I12550
aI12831
aI14497
aI14732
aI116241
aI123679
aI179839
aI189157
aI199223
aI243998
aI282686
aI297987
aI424449
aI476938
aI477753
aI491718
aI510265
aI643860
aI812530
aI868346
aI957225
aI979749
aI1057571
aI1146964
aI1290449
aI1319342
aI1413623
aI1451228
aI1569590
aI1617387
aI1862629
aI2550258
aI4145607
aI5547440
aI7294150
aI8057384
aI8741997
aI12523295
aI14578337
aI14909035
aI19602998
aI30529589
aI114497061
aI150275502
asI8613619
(lp366
I12550
aI29782
aI179839
aI225535
aI393833
aI452034
aI477753
aI506045
aI580246
aI756843
aI786050
aI1146964
aI1217215
aI1272422
aI2992968
aI3441244
aI6894801
aI15364547
aI20298303
asI26357
(lp367
I322822
aI2179808
aI3610434
aI6625501
asI2557703
(lp368
I12550
aI14040
aI27592
aI73713
aI116241
aI118018
aI129290
aI147016
aI173743
aI236988
aI368186
aI444659
aI695408
aI751078
aI1217215
aI1272422
aI1290449
aI1308504
aI1319342
aI1481171
aI1486819
aI1819216
aI3331477
aI3467213
aI6761218
aI6854999
aI7294150
aI8741997
aI50415954
aI85716885
asI476938
(lp369
I16192
aI199223
aI203663
aI224954
aI227291
aI243998
aI246856
aI260361
aI368873
aI510265
aI667007
aI786050
aI862812
aI894912
aI913926
aI1014002
aI1057571
aI1234701
aI1311126
aI1412942
aI1449294
aI1451228
aI1602667
aI1669810
aI1762606
aI1859310
aI2274410
aI2451360
aI2556729
aI5298466
aI5547440
aI7848381
aI8057384
aI9593425
aI54412957
aI80773187
aI150275502
asI1234701
(lp370
I12550
aI118018
aI146933
aI163830
aI173743
aI235795
aI368186
aI476938
aI957225
aI1014002
aI1217215
aI1486819
aI1581198
aI1793831
aI1980279
aI2025599
aI2363873
aI3121728
aI5547440
aI6761218
aI6854999
aI6894801
aI8977680
aI50415954
aI80773187
asI248792
(lp371
I172285
aI225366
aI307167
aI778728
aI961397
aI1001373
aI2582958
aI2829734
aI2962653
aI3077968
aI3088296
aI3425190
aI3597496
aI3866434
aI4046086
aI4739965
aI5304613
aI5779753
aI5929626
aI6113941
aI6139551
aI6487287
aI6535013
aI9463224
aI11963952
aI14929213
aI16946759
aI18176768
aI25419650
aI31335652
aI54580398
aI56401130
aI89666302
aI148413161
asI1305219
(lp372
I12550
aI26654
aI29782
aI32754
aI33029
aI79422
aI103946
aI106147
aI118018
aI121226
aI121475
aI147016
aI154158
aI173743
aI227291
aI236988
aI245072
aI245442
aI245580
aI246757
aI252646
aI287793
aI368186
aI378992
aI402696
aI438694
aI442348
aI574587
aI584044
aI695408
aI862884
aI1217215
aI1819216
aI1968451
aI2259672
aI2451360
aI4880714
aI5969229
aI8541221
aI8977680
aI15364547
aI38707353
aI52762908
asI42166037
(lp373
I12831
aI179839
aI282686
aI452034
aI477753
aI1146964
aI1272422
aI2129481
aI30529589
aI40360738
aI142069252
asI1971991
(lp374
I12550
aI224954
aI243998
aI260361
aI510265
aI568916
aI667007
aI786050
aI862812
aI1057571
aI1272422
aI1412942
aI1602667
aI1762606
aI1790522
aI80773187
aI150275502
asI17549084
(lp375
I14497
aI189157
aI424449
aI3540368
aI4145607
aI5287258
aI18353899
aI19602998
aI20298303
aI40360738
aI54611363
asI12523295
(lp376
I12550
aI14497
aI189157
aI424449
aI462843
aI812530
aI1146964
aI1569590
aI1859310
aI1968451
aI2014403
aI2026884
aI5287258
aI14578337
aI19602998
aI114497061
aI201219244
asI174043
(lp377
I12550
aI16499
aI116241
aI131832
aI189157
aI281206
aI346522
aI347811
aI462843
aI1004731
aI1575285
aI1790522
asI7259942
(lp378
I106147
aI207269
aI568916
aI667007
aI945031
aI1080117
aI1374671
asI1793831
(lp379
I12550
aI12831
aI116241
aI118018
aI139273
aI173743
aI179839
aI245442
aI444659
aI643860
aI751078
aI756843
aI786050
aI1234701
aI1311126
aI1581198
aI1980279
aI2025599
aI2208595
aI2992968
aI6854999
aI50415954
asI3075889
(lp380
I1217215
aI1231882
asI231222
(lp381
I12550
aI12731
aI12831
aI15680
aI16192
aI29782
aI42976
aI116241
aI116262
aI131832
aI146933
aI179839
aI219821
aI225535
aI227291
aI232516
aI245072
aI246757
aI246856
aI255731
aI260361
aI272967
aI282686
aI297987
aI337170
aI393833
aI413850
aI452034
aI469976
aI477753
aI554168
aI667007
aI751078
aI756843
aI786050
aI1087337
aI1146964
aI1217215
aI1272422
aI1319342
aI1486819
aI1575285
aI1602667
aI1669810
aI1790522
aI1862629
aI2208595
aI2947439
aI3029664
aI3441244
aI3540368
aI4183714
aI4619115
aI5298466
aI7294150
aI15364547
aI28495595
aI30529589
aI142069252
asI16192
(lp382
I12550
aI12731
aI12831
aI14497
aI15680
aI16499
aI16537
aI29782
aI42976
aI106147
aI107525
aI116241
aI116262
aI118018
aI121475
aI131832
aI146619
aI146933
aI147016
aI179839
aI203663
aI219821
aI225535
aI227291
aI231222
aI232516
aI245072
aI245442
aI246757
aI246856
aI252123
aI255731
aI260361
aI272967
aI282686
aI297987
aI337170
aI337343
aI347685
aI368873
aI393833
aI393921
aI413850
aI424449
aI427483
aI452034
aI469976
aI476938
aI477753
aI554168
aI568916
aI580246
aI620874
aI667007
aI751078
aI756843
aI786050
aI862812
aI957225
aI1014002
aI1052361
aI1087337
aI1146964
aI1217215
aI1272422
aI1290449
aI1300876
aI1311126
aI1319342
aI1449294
aI1451228
aI1581198
aI1600792
aI1602667
aI1669810
aI1762606
aI1790522
aI1862629
aI1865623
aI1920952
aI2129481
aI2363873
aI2566425
aI2586102
aI2947439
aI2992968
aI3128931
aI3441244
aI4183714
aI4436783
aI5062292
aI5298466
aI5547440
aI6096021
aI6894801
aI7848381
aI8057384
aI8741997
aI8977680
aI11442505
aI14909035
aI30529589
aI80773187
aI86155289
asI3866434
(lp383
I77515
aI225366
aI248792
aI307167
aI310813
aI961397
aI1001373
aI1035606
aI1738618
aI1864497
aI2582958
aI3077968
aI3088296
aI3425190
aI3597496
aI3822278
aI4739965
aI5779753
aI5929626
aI6445962
aI9463224
aI11963952
aI18176768
aI25419650
aI31335652
aI54580398
asI53064
(lp384
I14497
aI281206
aI413970
aI438694
aI462843
aI812530
aI2303136
aI3121728
aI3540368
asI245580
(lp385
I12550
aI26654
aI29782
aI33029
aI79422
aI103946
aI108689
aI121475
aI129139
aI147016
aI154158
aI173743
aI245072
aI245442
aI251010
aI272967
aI337343
aI574587
aI584044
aI1305219
aI2451360
aI3467213
aI4880714
aI8977680
aI38707353
asI1412942
(lp386
I12550
aI224954
aI243998
aI260361
aI476938
aI510265
aI667007
aI786050
aI957225
aI1217215
aI1272422
aI1602667
aI1669810
aI1790522
aI1971991
aI3859394
aI80773187
aI142069252
aI150275502
asI3077968
(lp387
I12550
aI34464
aI77515
aI116241
aI172285
aI225366
aI243998
aI248792
aI307167
aI310813
aI568916
aI667007
aI778728
aI961397
aI1001373
aI1035606
aI1498011
aI1738618
aI2582958
aI2829734
aI2898571
aI2962653
aI3088296
aI3425190
aI3597496
aI3866434
aI4046086
aI4619115
aI4739965
aI5298466
aI5304613
aI5779753
aI5929626
aI5973655
aI6113941
aI6139551
aI6202492
aI6445962
aI6487287
aI6535013
aI7263941
aI9463224
aI11963952
aI14929213
aI16946759
aI18176768
aI19841323
aI25419650
aI31335652
aI41585603
aI43899980
aI54580398
aI56401130
aI89666302
aI148413161
asI2416465
(lp388
I29782
aI243998
aI246757
aI246856
aI142069252
asI953381
(lp389
I477753
aI1718675
aI1738618
aI1984441
aI2025599
aI2078363
aI2249344
aI2298006
aI2451902
aI4739965
asI1308504
(lp390
I12550
aI116241
aI2557703
aI142069252
asI839311
(lp391
I14497
aI123679
aI235795
aI281206
aI287793
aI413850
aI424449
aI438694
aI452034
aI551071
aI731729
aI1451228
aI14909035
aI86155289
asI1862629
(lp392
I12550
aI12831
aI15680
aI16192
aI16537
aI29782
aI42976
aI116241
aI123679
aI147016
aI179839
aI225535
aI227291
aI231222
aI252646
aI282686
aI287793
aI297987
aI368873
aI413850
aI424449
aI444659
aI452034
aI477753
aI506045
aI551071
aI643860
aI731729
aI751078
aI894912
aI957225
aI1089916
aI1217215
aI1272422
aI1290449
aI1300876
aI1311126
aI1319342
aI1319689
aI1581198
aI1600792
aI1669810
aI1790522
aI1843648
aI1859310
aI1865623
aI1865832
aI1920952
aI1953271
aI2055373
aI2129481
aI2208595
aI2259672
aI2363873
aI2451902
aI2550258
aI2992968
aI3441244
aI3859394
aI5547440
aI6854999
aI7073994
aI7294150
aI7848381
aI8057384
aI20298303
aI30529589
aI85716885
asI6535013
(lp393
I225366
aI248792
aI307167
aI778728
aI2962653
aI3077968
aI3425190
aI3822278
aI4046086
aI5929626
aI6139551
aI9463224
aI11963952
aI14929213
aI16946759
aI18176768
aI19841323
aI25419650
aI41585603
asI4650856
(lp394
I14497
aI14732
aI189157
aI1953271
aI3261098
aI5287258
aI19602998
aI54611363
asI1087337
(lp395
I12550
aI12731
aI12831
aI16192
aI29782
aI32754
aI116241
aI116262
aI131832
aI179839
aI219821
aI225535
aI231222
aI232516
aI245442
aI246757
aI255731
aI260361
aI272967
aI282686
aI337170
aI337343
aI393833
aI452034
aI469976
aI477753
aI554168
aI620874
aI756843
aI1146964
aI1217215
aI1311126
aI2044192
aI2992968
aI3261098
aI3441244
aI6894801
aI12356227
aI15364547
aI30529589
aI86155289
aI142069252
asI1980279
(lp396
I54710
aI73713
aI116241
aI118018
aI146933
aI173743
aI235795
aI245442
aI354643
aI368186
aI444659
aI662903
aI868346
aI957225
aI1057571
aI1217215
aI1234701
aI1272422
aI1311126
aI1581198
aI1793831
aI1865832
aI1920952
aI2025599
aI2208595
aI2451902
aI5547440
aI6096021
aI6854999
aI8977680
aI50415954
asI1738618
(lp397
I77515
aI953381
aI961397
aI2582958
aI3077968
aI3822278
aI3866434
asI163960704
(lp398
I104153855
asI25419650
(lp399
I77515
aI225366
aI248792
aI307167
aI310813
aI778728
aI961397
aI1001373
aI1035606
aI2582958
aI2962653
aI3077968
aI3088296
aI3425190
aI3866434
aI4046086
aI4739965
aI5304613
aI5779753
aI5929626
aI6202492
aI6445962
aI6487287
aI6535013
aI11963952
aI14929213
aI18176768
aI31335652
aI89666302
asI184197
(lp400
I14497
aI32754
aI179839
aI424449
aI812530
aI1413623
aI1569590
aI1617387
aI1837352
aI1953271
aI2550258
aI12094098
aI14578337
asI3395468
(lp401
I247857
aI307167
aI1864497
aI2829734
aI3425190
aI3822278
aI6113941
aI6445962
aI9463224
aI31335652
asI85716885
(lp402
I12550
aI297987
aI378992
aI491718
aI574461
aI1290449
aI1311126
aI1319342
aI1581198
aI1600792
aI1790522
aI1862629
aI2363873
aI2550258
aI2557703
aI7294150
asI1865623
(lp403
I12550
aI16192
aI29782
aI131832
aI199223
aI203663
aI246856
aI249964
aI260361
aI337170
aI368186
aI368873
aI393833
aI413850
aI424449
aI438694
aI477753
aI491718
aI596529
aI731729
aI751078
aI786050
aI1052361
aI1217215
aI1272422
aI1311126
aI1319342
aI1319689
aI1451228
aI1581198
aI1669810
aI1862629
aI5062292
aI5547440
aI7294150
aI7848381
aI14909035
aI86155289
asI1001373
(lp404
I77515
aI247857
aI248792
aI307167
aI310813
aI778728
aI961397
aI1035606
aI1498011
aI2582958
aI3077968
aI3088296
aI3425190
aI3866434
aI4739965
aI5779753
aI5929626
aI6202492
aI6445962
aI25419650
aI31335652
asI2451360
(lp405
I12550
aI27592
aI29782
aI33029
aI118018
aI147016
aI173743
aI245580
aI272967
aI378992
aI402696
aI444659
aI447828
aI476938
aI584044
aI1014002
aI1057571
aI1305219
aI1311126
aI1449294
aI2208595
aI2363873
aI2556729
aI4880714
aI5298466
aI8057384
aI8741997
aI8977680
aI38707353
aI50415954
aI80773187
aI150275502
asI3088296
(lp406
I77515
aI248792
aI307167
aI310813
aI778728
aI961397
aI1001373
aI1035606
aI2582958
aI3077968
aI3866434
aI4739965
aI5779753
aI6202492
aI25419650
aI31335652
aI54580398
asI2774961
(lp407
I243998
aI667007
aI974240
aI1602667
aI1875558
aI2348564
aI8869494
aI10541837
aI43899980
aI150275502
asI12356227
(lp408
I29782
aI393833
aI812530
aI1087337
aI1146964
aI1953271
aI15364547
aI43899980
aI142069252
asI11442505
(lp409
I14497
aI14732
aI16192
aI179839
aI227291
aI424449
aI862812
aI1146964
aI1311126
aI1449294
aI1569590
aI1581198
aI1617387
aI2992968
aI3540368
aI4619115
aI5062292
aI5287258
aI5298466
aI7073994
aI7848381
aI8057384
aI8741997
aI9593425
aI14578337
aI25891526
aI54412957
aI144624416
asI1920952
(lp410
I12550
aI12831
aI14497
aI14732
aI16192
aI16537
aI29782
aI118018
aI179839
aI189157
aI252646
aI354643
aI368873
aI424449
aI438694
aI444659
aI452034
aI812530
aI957225
aI1057571
aI1089916
aI1146964
aI1290449
aI1300876
aI1311126
aI1319342
aI1581198
aI1600792
aI1617387
aI1837352
aI1843648
aI1862629
aI1865832
aI1953271
aI1968451
aI1980279
aI2129481
aI2208595
aI2363873
aI2550258
aI2992968
aI3540368
aI3859394
aI5287258
aI5547440
aI7294150
aI8057384
aI14578337
aI15364547
aI18353899
aI30529589
aI50415954
aI80773187
asI1984441
(lp411
I12550
aI42976
aI51134
aI116241
aI227291
aI231911
aI245442
aI249964
aI307167
aI346522
aI402696
aI808429
aI953381
aI1035606
aI1498011
aI2078363
aI2143119
aI2247153
aI2249344
aI2298006
aI2451902
aI2898571
aI3597496
aI4619115
aI5298466
aI6445962
asI620874
(lp412
I12550
aI12731
aI12831
aI16192
aI116262
aI179839
aI225535
aI245072
aI255731
aI282686
aI297987
aI337170
aI337343
aI427483
aI469976
aI477753
aI554168
aI643860
aI1087337
aI1146964
aI1272422
aI1300876
aI2129481
aI2947439
aI3029664
aI5062292
asI51134
(lp413
I12550
aI32754
aI231911
aI232516
aI249964
aI307167
aI402696
aI462843
aI862884
aI1150510
aI1449294
aI1498011
aI1984441
aI2143119
aI2247153
aI2898571
aI3261098
aI3597496
aI4619115
aI4739965
aI86155289
asI3944383
(lp414
I14040
aI73713
aI163830
aI245072
aI245442
aI346522
aI402696
aI1486819
aI1723244
aI30529589
asI894912
(lp415
I12550
aI15543
aI15680
aI16537
aI103946
aI203663
aI224954
aI252646
aI287793
aI368873
aI476938
aI477753
aI751078
aI957225
aI1004731
aI1300876
aI1311126
aI1790522
aI1862629
aI2259672
aI2947439
aI5547440
aI8741997
asI3467213
(lp416
I12550
aI29782
aI33029
aI79422
aI103946
aI118018
aI121475
aI129139
aI147016
aI173743
aI245442
aI245580
aI251010
aI272967
aI347811
aI378992
aI402696
aI447828
aI469976
aI523317
aI574587
aI584044
aI695408
aI751078
aI1217215
aI2557703
aI2566425
aI3441244
aI4880714
aI5062292
aI8977680
aI11654103
aI28495595
aI38707353
asI347811
(lp417
I12550
aI12831
aI29782
aI33029
aI116241
aI146933
aI163830
aI173743
aI174043
aI235795
aI245072
aI245442
aI255731
aI347685
aI368186
aI447828
aI452034
aI491718
aI554168
aI1052361
aI1089916
aI1217215
aI1290449
aI1311126
aI1319342
aI1581198
aI1600792
aI1669810
aI1843648
aI2025599
aI2992968
aI3467213
aI5547440
aI6854999
aI6894801
aI8057384
aI30529589
aI142069252
asI227291
(lp418
I16192
aI42976
aI116241
aI131832
aI231222
aI346522
aI438694
aI452034
aI476938
aI643860
aI756843
aI1272422
aI1305219
aI1311126
aI1319342
aI1449294
aI1581198
aI1617387
aI1862629
aI1984441
aI2586102
aI2947439
aI3540368
aI5287258
aI5298466
aI5547440
aI6761218
aI7073994
aI7294150
aI7848381
aI8057384
aI8541221
aI8741997
aI11442505
aI30529589
aI52762908
aI80773187
asI307167
(lp419
I12550
aI51134
aI77515
aI231911
aI247857
aI248792
aI310813
aI354643
aI778728
aI808429
aI961397
aI1001373
aI1035606
aI1498011
aI1984441
aI2143119
aI2247153
aI2249344
aI2582958
aI2898571
aI3077968
aI3088296
aI3157005
aI3395468
aI3597496
aI3866434
aI4619115
aI4739965
aI5298466
aI5304613
aI5779753
aI6113941
aI6202492
aI6445962
aI6535013
aI9463224
aI11963952
aI18176768
aI20203737
aI25419650
aI56401130
asI42976
(lp420
I12550
aI12731
aI12831
aI14040
aI16192
aI29782
aI116241
aI131832
aI139273
aI146933
aI179839
aI206998
aI225535
aI227291
aI231222
aI245072
aI245442
aI246757
aI252123
aI255731
aI260361
aI272967
aI282686
aI337170
aI346522
aI347685
aI393833
aI393921
aI402696
aI413850
aI424449
aI427483
aI452034
aI477753
aI506045
aI554168
aI580246
aI643860
aI731729
aI756843
aI786050
aI979749
aI1089916
aI1146964
aI1217215
aI1272422
aI1290449
aI1311126
aI1319342
aI1486819
aI1581198
aI1600792
aI1602667
aI1617387
aI1862629
aI1984441
aI2055373
aI2129481
aI2947439
aI2992968
aI3515818
aI5287258
aI6761218
aI8057384
aI12325808
aI30529589
aI86155289
asI1486819
(lp421
I12550
aI12831
aI14040
aI29782
aI42976
aI73713
aI116241
aI118018
aI121475
aI146933
aI173743
aI179839
aI206998
aI219821
aI225535
aI231222
aI232516
aI245072
aI245442
aI252123
aI282686
aI337343
aI346522
aI347685
aI393833
aI402696
aI442348
aI447828
aI477753
aI554168
aI667007
aI812530
aI862812
aI957225
aI1146964
aI1217215
aI1234701
aI1272422
aI1669810
aI1723244
aI2532888
aI2557703
aI2947439
aI3944383
aI5287258
aI6894801
aI8741997
aI28495595
aI30529589
aI50415954
aI142069252
aI150275502
asI2764775
(lp422
I3302157
asI442348
(lp423
I12550
aI14040
aI26654
aI29782
aI32754
aI33029
aI106147
aI116241
aI118018
aI121475
aI146933
aI173743
aI179839
aI225366
aI245442
aI251010
aI282686
aI346522
aI347685
aI378992
aI402696
aI452034
aI584044
aI862884
aI957225
aI1272422
aI1305219
aI1311126
aI1486819
aI1581198
aI1600792
aI1843648
aI2259672
aI2566425
aI5543358
asI73713
(lp424
I9852
aI16499
aI54710
aI118018
aI139273
aI219821
aI235795
aI368186
aI444659
aI574461
aI596529
aI662903
aI868346
aI979749
aI1217215
aI1481171
aI1486819
aI1581198
aI1790522
aI1980279
aI2557703
aI3944383
aI5547440
aI8057384
asI32754
(lp425
I12550
aI12831
aI14497
aI26654
aI33029
aI51134
aI79422
aI116241
aI118018
aI139273
aI146933
aI179839
aI184197
aI199223
aI232516
aI242859
aI243998
aI245072
aI245442
aI252646
aI287793
aI337170
aI337343
aI368186
aI378992
aI402696
aI442348
aI444659
aI751078
aI862884
aI1057571
aI1087337
aI1217215
aI1272422
aI1300876
aI1305219
aI1311126
aI1617387
aI1669810
aI1819216
aI1953271
aI2055373
aI2259672
aI2947439
aI3597496
aI7294150
aI30529589
aI50415954
asI163830
(lp426
I9852
aI54710
aI131832
aI189157
aI219821
aI235795
aI347811
aI368186
aI477753
aI491718
aI662903
aI957225
aI1217215
aI1234701
aI1319689
aI1581198
aI3944383
aI5547440
aI6761218
aI20298303
asI868346
(lp427
I14497
aI54710
aI73713
aI189157
aI235795
aI368186
aI424449
aI438694
aI662903
aI1217215
aI1581198
aI1859310
aI1980279
aI4880714
aI20298303
aI50415954
asI462843
(lp428
I12550
aI29782
aI51134
aI53064
aI131832
aI174043
aI281206
aI346522
aI1089916
aI1150510
aI1217215
aI1617387
aI1843648
aI12523295
aI58634939
as.