(dp1
I8357895
(lp2
I12662
aI44843
aI160173
aI823179
aI867582
aI868976
aI1174012
aI1213158
aI1723039
aI1787388
aI2528914
aI2574116
aI2724710
aI2749350
aI2955687
aI3085883
aI3171461
aI3215452
aI3272973
aI3355127
aI3365230
aI3367292
aI3427306
aI3503953
aI3958533
aI3969942
aI4246065
aI4250608
aI4338236
aI4403216
aI4462792
aI4524732
aI4649435
aI4663095
aI4694550
aI4726252
aI4793841
aI4870053
aI4932215
aI5126991
aI5142174
aI5207688
aI5436168
aI5552239
aI5740275
aI5881432
aI6041426
aI6279501
aI6337282
aI6564065
aI6578008
aI7102538
aI7659812
aI7867790
aI7937518
aI8027201
aI8161055
aI8310364
aI8610956
aI8898445
aI9006308
aI9337624
aI9422540
aI9687459
aI9749243
aI9937527
aI10032063
aI10843436
aI11493685
aI11531487
aI11656665
aI11747688
aI11871890
aI12100787
aI12288223
aI12293865
aI12821547
aI13563399
aI14386267
aI14419007
aI15440303
aI15860009
aI16665204
aI17097306
aI17645989
aI18006023
aI18312036
aI18322878
aI19176414
aI19364754
aI20204808
aI20347657
aI23416977
aI26844369
aI27924385
aI28601046
aI29114306
aI36565016
aI38255473
aI38492261
aI40930566
aI40976682
aI41130644
aI44891108
aI49028999
aI49406612
aI50299418
aI55065384
aI55483095
aI58611990
aI58819874
aI61758963
aI62861860
aI67388399
aI68793847
aI76705031
aI77303348
aI78068394
aI87076022
aI93848406
aI104102812
aI105211516
aI106637969
aI108219695
aI122111395
aI124491074
aI134506574
aI139365724
aI145136254
aI146831330
aI149072396
aI166942832
aI169168450
aI178848778
aI181224253
aI181562984
aI182308838
aI192019818
aI192288556
aI226440450
aI241090828
asI29573128
(lp3
I3691649
aI29461300
aI94875485
aI124919652
aI191512920
aI210127151
asI7227401
(lp4
I823179
aI868976
aI1688214
aI2166679
aI2445724
aI2528914
aI2534672
aI3022697
aI3085883
aI3365230
aI3423900
aI3958533
aI4134323
aI4338236
aI4402065
aI4403216
aI4462792
aI4649435
aI4932215
aI5170532
aI5212420
aI5521236
aI5882133
aI6041426
aI7525395
aI7867790
aI7950737
aI10032063
aI10624507
aI11661890
aI12293865
aI12663454
aI58611990
asI92094476
(lp5
I663032
aI1000576
aI1627179
aI1794556
aI1867680
aI4940196
aI5161123
aI7295632
aI7659812
aI7676417
aI17931307
aI96542788
asI4403216
(lp6
I44301
aI44843
aI65324
aI362794
aI741634
aI823179
aI868976
aI1174012
aI1213158
aI1471861
aI1723039
aI1782672
aI1787388
aI2424111
aI2528914
aI2574116
aI2724710
aI2749350
aI2955687
aI2972157
aI3022697
aI3047885
aI3085883
aI3215452
aI3272973
aI3365230
aI3427306
aI3503953
aI3958533
aI3969942
aI4134323
aI4246065
aI4250608
aI4338188
aI4338236
aI4415603
aI4447169
aI4456443
aI4524732
aI4649435
aI4663095
aI4753012
aI4785467
aI4793841
aI4870053
aI4932215
aI5126991
aI5142174
aI5212420
aI5436168
aI5552239
aI6041426
aI6279501
aI6564065
aI7102538
aI7227401
aI7867790
aI7937518
aI8027201
aI8310364
aI8357895
aI8422151
aI8610956
aI9006308
aI9209743
aI9337624
aI9422540
aI9749243
aI9937527
aI10032063
aI10822578
aI11656665
aI11747688
aI12100787
aI12288223
aI12293865
aI12821547
aI13563399
aI14386267
aI14419007
aI14480835
aI15440303
aI15860009
aI16665204
aI18006023
aI18312036
aI19364754
aI19600783
aI20222256
aI20347657
aI28590514
aI28601046
aI38492261
aI40930566
aI44891108
aI49028999
aI50299418
aI55483095
aI57243836
aI58611990
aI58819874
aI60225019
aI61758963
aI62861860
aI68793847
aI77303348
aI85716066
aI88620086
aI104102812
aI105211516
aI106637969
aI124491074
aI126264427
aI134506574
aI138482951
aI145136254
aI146831330
aI153172414
aI154823176
aI156104417
aI178848778
aI182308838
aI186064669
aI241090828
asI48359445
(lp7
I2013678
aI4940196
aI6797432
aI7659812
aI7676417
aI7731447
aI8311563
aI9566269
aI13164261
aI17931307
aI49236330
asI36565016
(lp8
I823179
aI2724710
aI2749350
aI3272973
aI3503953
aI3969942
aI4338236
aI4649435
aI4932215
aI5126991
aI7525395
aI7867790
aI8357895
aI9006308
aI10032063
aI11656665
aI49028999
aI122111395
aI134506574
asI33476650
(lp9
I10032063
aI12293865
aI104102812
aI141454512
aI186064669
asI18006023
(lp10
I65324
aI823179
aI868976
aI1213158
aI1723039
aI1787388
aI2574116
aI2724710
aI2749350
aI3085883
aI3215452
aI3272973
aI3365230
aI3503953
aI3958533
aI3969942
aI4246065
aI4250608
aI4403216
aI4575649
aI4649435
aI4793841
aI4870053
aI4932215
aI5126991
aI5436168
aI6041426
aI6279501
aI6564065
aI7102538
aI7210301
aI8027201
aI8357895
aI9006308
aI9209743
aI9422540
aI9687459
aI9749243
aI9937527
aI10032063
aI10822578
aI11656665
aI11871890
aI12100787
aI12288223
aI12293865
aI13563399
aI14195123
aI14386267
aI14419007
aI15440303
aI16665204
aI17097306
aI18312036
aI18322878
aI19364754
aI20222256
aI20347657
aI21142205
aI27924385
aI28601046
aI38255473
aI38492261
aI39033081
aI40930566
aI44891108
aI47392333
aI49028999
aI50299418
aI55065384
aI55483095
aI58819874
aI59377168
aI60225019
aI61758963
aI62861860
aI68793847
aI77303348
aI85677663
aI104102812
aI105211516
aI106637969
aI122111395
aI124491074
aI134506574
aI138482951
aI140195205
aI144190860
aI146831330
aI150589497
aI153172414
aI160452457
aI166942832
aI168942768
aI192288556
asI3971116
(lp11
I1627179
aI1723039
aI2178259
aI3111376
aI11661890
aI18322878
asI150589497
(lp12
I4932215
aI7102538
aI12100787
aI18006023
aI169168450
asI6674491
(lp13
I1866412
asI9566269
(lp14
I663032
aI1794556
aI4902378
aI4940196
aI5161123
aI6797432
aI7659812
aI8311563
aI13164261
aI17931307
aI48359445
asI1628224
(lp15
I224552
aI337032
aI642565
aI867582
aI1257981
aI1576059
aI1738161
aI2039481
aI2530452
aI2709150
aI3171461
aI3211230
aI3272973
aI3533673
aI5725487
aI5740275
aI6337282
aI7988989
aI8898445
aI9757312
aI10843436
aI11045234
aI11493685
aI11531487
aI12103340
aI12305229
aI17645989
aI19138731
aI20204808
aI22097964
aI23416977
aI24960877
aI25124243
aI26231519
aI26844369
aI29114306
aI38165520
aI38990041
aI40976682
aI41130644
aI41853154
aI43348979
aI49406612
aI55483095
aI65029737
aI67160479
aI67388399
aI76705031
aI77303348
aI78068394
aI87442515
aI108219695
aI137074674
aI139365724
aI149072396
aI151924147
aI156146269
aI156400262
aI174912561
aI181562984
aI187023566
aI192019818
aI197540093
aI200702506
asI146831330
(lp16
I61798
aI823179
aI1213158
aI2749350
aI3272973
aI4403216
aI4870053
aI4932215
aI6279501
aI7937518
aI8357895
aI8610956
aI9337624
aI9422540
aI9937527
aI11656665
aI12100787
aI12293865
aI12821547
aI13563399
aI14386267
aI15440303
aI16665204
aI18006023
aI19364754
aI20347657
aI28601046
aI32262815
aI38165520
aI38255473
aI40930566
aI44891108
aI50299418
aI58819874
aI60225019
aI61758963
aI62861860
aI68793847
aI77303348
aI87076022
aI104102812
aI124491074
aI166942832
asI96542788
(lp17
I663032
aI1000576
aI1627179
aI1794556
aI1867680
aI4381327
aI5161123
aI5171533
aI7295632
aI92094476
asI36620360
(lp18
I337032
aI1576059
aI2709150
aI3171461
aI8898445
aI12073500
aI20204808
aI23416977
aI26231519
aI29114306
aI40976682
aI41130644
aI41853154
aI55483095
aI67160479
aI76705031
aI78068394
aI96517058
aI139365724
aI149072396
aI197540093
aI226440450
aI321263733
asI7102538
(lp19
I44843
aI823179
aI868976
aI1213158
aI1475550
aI1723039
aI1787388
aI2724710
aI2749350
aI3085883
aI3215452
aI3272973
aI3365230
aI3367292
aI3427306
aI3503953
aI3958533
aI3969942
aI4250608
aI4403216
aI4462792
aI4524732
aI4575649
aI4649435
aI4793841
aI4870053
aI4932215
aI5126991
aI5521236
aI6564065
aI7937518
aI8182109
aI8357895
aI8644587
aI9006308
aI9337624
aI9422540
aI9687459
aI9749243
aI9937527
aI10032063
aI11656665
aI11747688
aI12100787
aI12288223
aI12293865
aI12821547
aI13563399
aI14195123
aI14386267
aI14419007
aI15440303
aI15860009
aI18006023
aI18312036
aI18322878
aI19364754
aI28601046
aI32262815
aI38492261
aI44891108
aI49028999
aI50299418
aI55065384
aI58611990
aI60225019
aI61758963
aI62861860
aI68793847
aI77701046
aI105211516
aI106637969
aI122111395
aI124491074
aI134506574
aI138482951
aI140195205
aI150589497
aI153172414
aI182308838
aI192288556
asI134506574
(lp20
I44843
aI362794
aI868976
aI1213158
aI1787388
aI2749350
aI3085883
aI3272973
aI3365230
aI3503953
aI3958533
aI3969942
aI4403216
aI4870053
aI4932215
aI5126991
aI5436168
aI6041426
aI6279501
aI6564065
aI7102538
aI7867790
aI8357895
aI9006308
aI9337624
aI9422540
aI9937527
aI11656665
aI11747688
aI12100787
aI12288223
aI12293865
aI13563399
aI18006023
aI18322878
aI19364754
aI28601046
aI36565016
aI39033081
aI40930566
aI44891108
aI49028999
aI50299418
aI61758963
aI62861860
aI68793847
aI77303348
aI87076022
aI88620086
aI100890709
aI104102812
aI106637969
aI124491074
aI144190860
aI155667308
aI169168450
aI186064669
aI241090828
asI109391951
(lp21
I8898445
aI82409195
aI139365724
asI168323115
(lp22
I823179
aI2749350
aI9337624
aI9937527
aI15860009
aI19176414
aI38492261
aI44891108
aI61758963
aI62861860
aI87076022
aI88620086
aI145136254
aI156104417
aI168942768
aI182308838
asI1824853
(lp23
I12662
aI65324
aI741634
aI823179
aI1213158
aI1471861
aI4246065
asI3215452
(lp24
I823179
aI868976
aI1787388
aI2424111
aI2724710
aI2749350
aI3085883
aI3355127
aI3365230
aI3427306
aI3503953
aI3969942
aI4338236
aI4403216
aI4456443
aI4462792
aI4524732
aI4785467
aI4932215
aI5126991
aI5436168
aI6564065
aI7102538
aI8161055
aI8182109
aI8357895
aI9006308
aI9422540
aI10032063
aI11656665
aI14419007
aI18006023
aI18322878
aI20222256
aI49028999
aI55065384
aI62861860
asI18675812
(lp25
I1627179
aI3085883
aI6691431
aI9303982
aI38571737
aI99241624
asI38492261
(lp26
I362794
aI1174012
aI1787388
aI2724710
aI2749350
aI3365230
aI3367292
aI3958533
aI4403216
aI4870053
aI5521236
aI7102538
aI8027201
aI8182109
aI8357895
aI9337624
aI11656665
aI12100787
aI12288223
aI12293865
aI12821547
aI13563399
aI14386267
aI14419007
aI16665204
aI18006023
aI19176414
aI19364754
aI20347657
aI40930566
aI44891108
aI57243836
aI59377168
aI61758963
aI68793847
aI85716066
aI88620086
aI124491074
aI153172414
aI168323115
aI168942768
aI169168450
aI186064669
aI208981271
aI241090828
asI5552239
(lp27
I4403216
aI4726252
aI5142174
aI5881432
aI8357895
asI166942832
(lp28
I1213158
aI2749350
aI3272973
aI4793841
aI4870053
aI6279501
aI7937518
aI8357895
aI9006308
aI9937527
aI11656665
aI12100787
aI12293865
aI18006023
aI19176414
aI19364754
aI20347657
aI58819874
aI62861860
aI68793847
aI104102812
aI146831330
aI156104417
aI182308838
aI186064669
aI192288556
asI4415603
(lp29
I2067334
aI2166679
aI2298846
aI2445724
aI4403216
aI4753012
aI5170532
aI5265943
asI321263733
(lp30
I867582
aI1576059
aI8898445
aI23416977
aI36620360
aI41130644
aI139365724
asI6797432
(lp31
I61798
aI1794556
aI4381327
aI4940196
aI7659812
aI8311563
aI9566269
aI13164261
aI17931307
aI48359445
aI49236330
aI50509720
asI70957191
(lp32
I3272973
aI5659921
aI21142205
asI11829392
(lp33
I337032
aI642565
aI1257981
aI1963369
aI2530452
aI3171461
aI3272973
aI5725487
aI5740275
aI6337282
aI7210301
aI7988989
aI8898445
aI9757312
aI10843436
aI11493685
aI12073500
aI17645989
aI20204808
aI26231519
aI41853154
aI43348979
aI49406612
aI55483095
aI58819874
aI76705031
aI77303348
aI87442515
aI96517058
aI98358711
aI108219695
aI126264427
aI137074674
aI149072396
aI181562984
aI187023566
aI192019818
aI200702506
asI23416977
(lp34
I160173
aI337032
aI867582
aI1576059
aI1628224
aI2709150
aI3171461
aI5740275
aI6337282
aI7210301
aI8357895
aI8898445
aI10843436
aI11493685
aI11531487
aI17645989
aI26844369
aI29114306
aI36620360
aI40976682
aI41130644
aI53877646
aI55483095
aI58819874
aI67160479
aI67388399
aI78068394
aI96517058
aI108219695
aI149072396
aI156400262
aI174912561
aI181224253
aI184072820
aI197540093
aI200702506
aI226440450
aI321263733
asI5161123
(lp35
I663032
aI1000576
aI1627179
aI1794556
aI1867680
aI2876356
aI4940196
aI5171533
aI7295632
aI7676417
aI9566269
aI50509720
aI92094476
aI96542788
asI294842534
(lp36
I3272973
aI21142205
aI51350895
aI145558214
aI298774704
asI19138731
(lp37
I642565
aI1628224
aI2530452
aI3171461
aI6337282
aI7988989
aI10843436
aI17645989
aI20204808
aI24960877
aI26231519
aI38165520
aI43348979
aI49406612
aI137074674
aI174912561
aI197540093
asI298774704
(lp38
I3272973
aI5659921
aI21142205
aI294842534
asI57243836
(lp39
I823179
aI1475550
aI1723039
aI4403216
aI4870053
aI6279501
aI6564065
aI9006308
aI9337624
aI9937527
aI13563399
aI14386267
aI14480835
aI16665204
aI19176414
aI19364754
aI20347657
aI27924385
aI28601046
aI32262815
aI38492261
aI40930566
aI59377168
aI61758963
aI62861860
aI68793847
aI100890709
aI124491074
aI153172414
aI156104417
aI169168450
aI186064669
aI199864652
aI208981271
aI241090828
asI891254
(lp40
I383174
aI2097438
aI2750169
aI6966143
aI17097306
aI216093294
asI383174
(lp41
I891254
aI2097438
aI216093294
asI4462792
(lp42
I12662
aI61798
aI362794
aI823179
aI868976
aI1174012
aI1475550
aI1688214
aI1787388
aI2298846
aI2445724
aI2749350
aI2825414
aI3022697
aI3047885
aI3085883
aI3215452
aI3367292
aI3427306
aI3503953
aI3958533
aI3969942
aI4250608
aI4402065
aI4447169
aI4456443
aI4524732
aI4575649
aI4602036
aI4649435
aI4663095
aI4694550
aI4932215
aI5126991
aI5212420
aI5436168
aI5521236
aI6041426
aI6514424
aI6578008
aI7102538
aI7227401
aI7525395
aI7867790
aI7950737
aI8161055
aI8310364
aI8357895
aI8422151
aI9006308
aI10624507
aI11656665
aI11747688
aI12288223
aI14419007
asI187023566
(lp43
I337032
aI642565
aI1257981
aI1576059
aI1628224
aI1738161
aI2039481
aI2530452
aI2709150
aI3533673
aI5725487
aI7988989
aI9757312
aI10843436
aI11045234
aI11531487
aI11829392
aI12103340
aI17645989
aI24960877
aI25124243
aI26707251
aI38165520
aI49406612
aI55483095
aI65029737
aI76705031
aI87442515
aI93848406
aI137074674
aI151924147
aI156146269
aI156400262
aI181562984
aI184072820
aI192019818
asI38990041
(lp44
I642565
aI1257981
aI1628224
aI3211230
aI3533673
aI5740275
aI6337282
aI8898445
aI12103340
aI17645989
aI22097964
aI25124243
aI26231519
aI32427674
aI38165520
aI55483095
aI65029737
aI67160479
aI76705031
aI137074674
aI181562984
aI192019818
asI12288223
(lp45
I44843
aI65324
aI362794
aI741634
aI823179
aI868976
aI1213158
aI1471861
aI1475550
aI1723039
aI1787388
aI2424111
aI2724710
aI2749350
aI3365230
aI3427306
aI3503953
aI3958533
aI4250608
aI4403216
aI4462792
aI4793841
aI4870053
aI4932215
aI5126991
aI6041426
aI6564065
aI7102538
aI8182109
aI8357895
aI9006308
aI9337624
aI9937527
aI10032063
aI11656665
aI11747688
aI11871890
aI12100787
aI12293865
aI13563399
aI14195123
aI14419007
aI15440303
aI16665204
aI18006023
aI18312036
aI18322878
aI19176414
aI19364754
aI20347657
aI27924385
aI38492261
aI49028999
aI50299418
aI61758963
aI62861860
aI68793847
aI106637969
aI122111395
aI124491074
aI134506574
aI138482951
aI153172414
aI182308838
asI6564065
(lp46
I44301
aI362794
aI823179
aI868976
aI1174012
aI1213158
aI1475550
aI1723039
aI1787388
aI1812082
aI1918327
aI2178259
aI2749350
aI3085883
aI3111376
aI3215452
aI3272973
aI3355127
aI3365230
aI3427306
aI3503953
aI3958533
aI4250608
aI4402065
aI4403216
aI4649435
aI4663095
aI4694550
aI4785467
aI4870053
aI4932215
aI5126991
aI5212420
aI5436168
aI5521236
aI7102538
aI7867790
aI7950737
aI8161055
aI8182109
aI8357895
aI8422151
aI9006308
aI9337624
aI9422540
aI9687459
aI9937527
aI10032063
aI10822578
aI11656665
aI11661890
aI11747688
aI11871890
aI12288223
aI13563399
aI14386267
aI14480835
aI18006023
aI18322878
aI19364754
aI20347657
aI27924385
aI28601046
aI38492261
aI39033081
aI40053469
aI40930566
aI44891108
aI49028999
aI57243836
aI58611990
aI59377168
aI60225019
aI61758963
aI62861860
aI68793847
aI85677663
aI104102812
aI106637969
aI122111395
aI124491074
aI134506574
aI153172414
aI154823176
aI155667308
aI160452457
aI164791675
aI169168450
aI182308838
aI186064669
asI41853154
(lp47
I337032
aI471871
aI642565
aI867582
aI1257981
aI1628224
aI1738161
aI2530452
aI3171461
aI3211230
aI3533673
aI5740275
aI6337282
aI7210301
aI8898445
aI11045234
aI11493685
aI11531487
aI11829392
aI12073500
aI12103340
aI17645989
aI20204808
aI22097964
aI24960877
aI26231519
aI26844369
aI29114306
aI36620360
aI38165520
aI43348979
aI49406612
aI55483095
aI65029737
aI67160479
aI67388399
aI76705031
aI96517058
aI98358711
aI108219695
aI137074674
aI149072396
aI156146269
aI174912561
aI181562984
aI184072820
aI197540093
aI200702506
asI3690728
(lp48
I823179
aI2067334
aI2166679
aI2298846
aI2445724
aI2528914
aI2724710
aI3489196
aI3782943
aI4134323
aI7142997
aI50509720
aI63282622
asI7731447
(lp49
I7659812
aI13164261
aI17931307
aI48359445
asI197540093
(lp50
I337032
aI642565
aI867582
aI1257981
aI1628224
aI1738161
aI2039481
aI2530452
aI3171461
aI3211230
aI3272973
aI5740275
aI6337282
aI7210301
aI8898445
aI10843436
aI11493685
aI11531487
aI12073500
aI12103340
aI12305229
aI17645989
aI19138731
aI20204808
aI22097964
aI23416977
aI24960877
aI26231519
aI29114306
aI32427674
aI36620360
aI38165520
aI40976682
aI41853154
aI43348979
aI49406612
aI55483095
aI58819874
aI67160479
aI67388399
aI76705031
aI82409195
aI93848406
aI96517058
aI108219695
aI136112029
aI137074674
aI139365724
aI149072396
aI174912561
aI181562984
aI184072820
asI741634
(lp51
I12662
aI44301
aI44843
aI61798
aI65324
aI362794
aI823179
aI1174012
aI1213158
aI1471861
aI1782672
aI1787388
aI1824853
aI2178259
aI2424111
aI3085883
aI3365230
aI3503953
aI4250608
aI4403216
aI5436168
aI8422151
aI9006308
aI9337624
aI11656665
aI11661890
aI12288223
aI18322878
aI34805445
aI35791758
aI62861860
aI124491074
asI17931307
(lp52
I6797432
aI7659812
aI7676417
aI7731447
aI8311563
aI9566269
aI13164261
aI48359445
aI92094476
asI5212420
(lp53
I44301
aI362794
aI823179
aI868976
aI1385997
aI1688214
aI1782672
aI2298846
aI2749350
aI2955687
aI2972157
aI3022697
aI3085883
aI3272973
aI3503953
aI3782943
aI4338188
aI4338236
aI4402065
aI4403216
aI4456443
aI4462792
aI4524732
aI4649435
aI4694550
aI4932215
aI5521236
aI6041426
aI6514424
aI6564065
aI6578008
aI7227401
aI7950737
aI8310364
aI39033081
aI154823176
asI22097964
(lp54
I337032
aI867582
aI1628224
aI1738161
aI2709150
aI3211230
aI5740275
aI6337282
aI8898445
aI10843436
aI11493685
aI17645989
aI20204808
aI24960877
aI26231519
aI26707251
aI26844369
aI29114306
aI38165520
aI38990041
aI41130644
aI41853154
aI43348979
aI49406612
aI55483095
aI65029737
aI67160479
aI76705031
aI78068394
aI82409195
aI96517058
aI136112029
aI139365724
aI149072396
aI156146269
aI156400262
aI181224253
aI181562984
aI192019818
aI197540093
aI226440450
asI241090828
(lp55
I823179
aI2749350
aI3272973
aI4246065
aI4403216
aI4870053
aI8357895
aI13563399
aI19176414
aI20347657
aI27924385
aI38492261
aI44891108
aI57243836
aI58819874
aI62861860
aI77303348
aI87076022
aI88620086
aI134506574
aI155667308
aI156104417
aI186064669
asI3272973
(lp56
I44843
aI65324
aI337032
aI362794
aI823179
aI867582
aI868976
aI908771
aI1627179
aI1628224
aI1738161
aI1787388
aI1918327
aI2528914
aI2574116
aI2749350
aI2768474
aI2920418
aI2955687
aI3111376
aI3171461
aI3355127
aI3365230
aI3367292
aI3503953
aI3945263
aI3958533
aI3969942
aI4246065
aI4250608
aI4338236
aI4403216
aI4524732
aI4575649
aI4649435
aI4726252
aI4870053
aI4932215
aI5212420
aI5436168
aI5521236
aI5659921
aI5740275
aI6041426
aI6279501
aI6337282
aI6564065
aI6578008
aI7102538
aI7867790
aI7950737
aI8027201
aI8161055
aI8182109
aI8310364
aI8357895
aI8610956
aI8898445
aI9006308
aI9209743
aI9337624
aI9422540
aI9687459
aI9749243
aI9937527
aI10032063
aI11493685
aI11531487
aI11656665
aI11747688
aI11829392
aI11871890
aI12073500
aI12100787
aI12103340
aI12293865
aI13563399
aI14195123
aI14386267
aI14419007
aI15440303
aI17097306
aI17645989
aI18006023
aI18312036
aI18322878
aI19154846
aI19176414
aI19364754
aI20204808
aI20347657
aI21142205
aI24960877
aI26231519
aI28601046
aI29114306
aI32427674
aI36565016
aI38165520
aI40930566
aI43348979
aI44891108
aI49028999
aI49406612
aI50299418
aI51350895
aI52887152
aI55065384
aI55483095
aI58819874
aI59377168
aI61758963
aI62861860
aI67160479
aI68793847
aI70957191
aI76705031
aI77303348
aI78068394
aI87076022
aI93848406
aI96517058
aI98583916
aI104102812
aI108219695
aI124491074
aI134506574
aI136112029
aI137074674
aI138482951
aI139365724
aI145558214
aI146831330
aI149072396
aI154545004
aI156104417
aI166942832
aI169168450
aI178848778
aI182308838
aI186064669
aI192019818
aI197540093
aI199864652
aI241090828
aI294842534
aI298774704
asI5882133
(lp57
I2067334
aI2166679
aI2298846
aI2424111
aI2528914
aI2534672
aI2724710
aI3132711
aI4134323
aI4456443
aI4524732
aI4649435
aI4753012
aI7227401
aI11661890
asI58611990
(lp58
I823179
aI868976
aI1475550
aI1787388
aI2724710
aI2749350
aI3365230
aI3427306
aI3969942
aI4250608
aI4403216
aI4447169
aI4456443
aI4524732
aI4649435
aI4785467
aI4870053
aI4932215
aI5126991
aI5521236
aI6041426
aI6279501
aI6564065
aI7102538
aI7227401
aI7525395
aI8027201
aI8182109
aI8310364
aI8357895
aI9006308
aI10032063
aI11656665
aI12100787
aI12293865
aI14195123
aI14386267
aI18322878
aI19364754
aI28601046
aI49028999
aI50299418
aI55065384
aI98583916
aI105211516
aI122111395
aI124491074
asI38571737
(lp59
I6691431
aI18675812
aI99241624
asI2097438
(lp60
I383174
aI891254
aI4035470
aI6966143
aI216093294
asI7659812
(lp61
I663032
aI1627179
aI1794556
aI1867680
aI2013678
aI2298846
aI2528914
aI4381327
aI4902378
aI4940196
aI6691431
aI6797432
aI7295632
aI7676417
aI7731447
aI8311563
aI8357895
aI9566269
aI13164261
aI17931307
aI48359445
aI49236330
aI50509720
aI92094476
asI15860009
(lp62
I823179
aI4403216
aI7102538
aI8357895
aI9337624
aI12293865
aI14386267
aI14480835
aI28601046
aI32262815
aI44891108
aI62861860
aI124491074
aI145136254
aI168323115
aI182308838
asI362794
(lp63
I12662
aI44843
aI61798
aI65324
aI741634
aI823179
aI868976
aI1174012
aI1213158
aI1471861
aI1481193
aI1627179
aI1782672
aI1787388
aI1812082
aI2178259
aI2528914
aI2574116
aI2749350
aI3272973
aI3365230
aI4403216
aI4462792
aI4870053
aI5126991
aI5212420
aI5436168
aI5521236
aI6041426
aI6564065
aI7937518
aI8422151
aI9006308
aI9337624
aI9422540
aI12100787
aI12288223
aI12293865
aI13563399
aI14386267
aI18322878
aI28601046
aI38492261
aI39033081
aI62861860
aI100890709
aI122111395
aI124491074
aI134506574
aI164791675
asI210127151
(lp64
I29461300
aI29573128
aI109399539
aI124919652
aI184414101
aI276945965
asI20222256
(lp65
I823179
aI3215452
aI3365230
aI3958533
aI4403216
aI8027201
aI8161055
aI9422540
aI10032063
aI10822578
aI11656665
aI12293865
aI14195123
aI14386267
aI18006023
aI19364754
aI50299418
asI11493685
(lp66
I337032
aI642565
aI867582
aI1257981
aI1576059
aI1628224
aI1738161
aI2530452
aI3171461
aI3211230
aI3272973
aI3533673
aI5725487
aI5740275
aI6337282
aI7210301
aI7988989
aI8357895
aI8898445
aI9757312
aI10843436
aI11531487
aI11829392
aI12073500
aI12103340
aI12305229
aI17445314
aI17645989
aI19154846
aI20204808
aI22097964
aI23416977
aI24960877
aI26231519
aI26844369
aI29114306
aI38165520
aI41853154
aI43348979
aI49406612
aI55483095
aI58819874
aI65029737
aI67160479
aI67388399
aI76705031
aI77303348
aI82409195
aI87442515
aI93848406
aI96517058
aI98358711
aI136112029
aI137074674
aI139365724
aI149072396
aI151924147
aI174912561
aI181562984
aI192019818
aI197540093
aI200702506
aI226440450
asI199864652
(lp67
I3272973
aI28601046
aI57243836
aI104102812
aI141454512
aI186064669
asI5171533
(lp68
I663032
aI1000576
aI1627179
aI1794556
aI1867680
aI2876356
aI5161123
aI7295632
aI96542788
asI146010450
(lp69
I3691649
aI29461300
aI94875485
aI124919652
aI128324832
aI191512920
asI191512920
(lp70
I29461300
aI29573128
aI94875485
aI109399539
aI146010450
aI238890085
asI8182109
(lp71
I823179
aI868976
aI1475550
aI2749350
aI3215452
aI3272973
aI3367292
aI3427306
aI3503953
aI3958533
aI4932215
aI5521236
aI6564065
aI7102538
aI8027201
aI8161055
aI9422540
aI10032063
aI11656665
aI12288223
aI12293865
aI14419007
aI18312036
aI19364754
aI20347657
aI28601046
aI38492261
aI50299418
aI55065384
aI58611990
aI59377168
aI62861860
aI122111395
asI61798
(lp72
I12662
aI44301
aI44843
aI65324
aI362794
aI741634
aI823179
aI868976
aI1174012
aI1213158
aI1471861
aI1782672
aI1787388
aI2528914
aI2724710
aI3503953
aI4462792
aI4524732
aI4932215
aI5436168
aI6797432
aI7142997
aI7950737
aI8310364
aI9006308
aI9337624
aI11656665
aI11661890
aI12663454
aI34805445
aI35791758
aI50509720
aI146831330
asI11747688
(lp73
I44301
aI44843
aI823179
aI868976
aI1475550
aI1787388
aI2528914
aI2724710
aI2749350
aI3085883
aI3272973
aI3355127
aI3367292
aI3427306
aI3503953
aI3958533
aI3969942
aI4250608
aI4338236
aI4403216
aI4462792
aI4524732
aI4649435
aI4663095
aI4785467
aI4932215
aI5126991
aI5436168
aI6041426
aI6564065
aI7102538
aI7867790
aI8310364
aI8357895
aI8422151
aI9006308
aI9337624
aI9422540
aI10032063
aI11656665
aI11871890
aI12100787
aI12288223
aI18312036
aI18322878
aI49028999
aI62861860
aI124491074
aI134506574
asI49236330
(lp74
I4940196
aI6797432
aI7659812
aI7676417
aI8311563
aI13164261
aI48359445
asI3365230
(lp75
I12662
aI44843
aI65324
aI362794
aI741634
aI823179
aI868976
aI1174012
aI1213158
aI1475550
aI1723039
aI1782672
aI1787388
aI2528914
aI2574116
aI2749350
aI3085883
aI3215452
aI3272973
aI3355127
aI3427306
aI3503953
aI3958533
aI4246065
aI4250608
aI4403216
aI4649435
aI4793841
aI4870053
aI4932215
aI5126991
aI5436168
aI6041426
aI6279501
aI6564065
aI7102538
aI7227401
aI7867790
aI7937518
aI8027201
aI8357895
aI9006308
aI9209743
aI9337624
aI9422540
aI9687459
aI9749243
aI9937527
aI10032063
aI11656665
aI11871890
aI12100787
aI12288223
aI12293865
aI12821547
aI13563399
aI14195123
aI14386267
aI14419007
aI18006023
aI18312036
aI18322878
aI19364754
aI20222256
aI20347657
aI27924385
aI28601046
aI38492261
aI49028999
aI50299418
aI55065384
aI58611990
aI59377168
aI61758963
aI62861860
aI68793847
aI77303348
aI122111395
aI124491074
aI134506574
aI138482951
aI160452457
aI168942768
aI169168450
aI186064669
aI192288556
asI11045234
(lp76
I337032
aI642565
aI1257981
aI1628224
aI1738161
aI2039481
aI2530452
aI3211230
aI3533673
aI5725487
aI5740275
aI7988989
aI8898445
aI9757312
aI10843436
aI12073500
aI12103340
aI12305229
aI17645989
aI20204808
aI24960877
aI25124243
aI26231519
aI32427674
aI41853154
aI43348979
aI55483095
aI58819874
aI65029737
aI67160479
aI76705031
aI77303348
aI87442515
aI137074674
aI139365724
aI149072396
aI151924147
aI156146269
aI156400262
aI181562984
aI187023566
aI192019818
asI12662
(lp77
I44843
aI61798
aI65324
aI362794
aI741634
aI823179
aI1213158
aI1471861
aI1688214
aI1782672
aI1787388
aI1824853
aI2724710
aI2749350
aI2955687
aI3047885
aI3085883
aI3365230
aI3489196
aI3503953
aI4338236
aI4462792
aI8357895
aI9006308
aI10032063
aI11661890
aI62861860
aI124491074
asI3367292
(lp78
I823179
aI868976
aI1475550
aI2749350
aI3085883
aI3272973
aI3427306
aI3503953
aI3958533
aI3969942
aI4338236
aI4456443
aI4462792
aI4524732
aI4575649
aI4649435
aI4932215
aI6041426
aI7102538
aI8182109
aI8310364
aI8357895
aI9422540
aI10822578
aI11747688
aI12821547
aI14419007
aI18312036
aI18322878
aI38492261
aI60225019
aI77701046
aI124491074
asI7950737
(lp79
I44301
aI61798
aI823179
aI868976
aI1475550
aI1688214
aI1782672
aI2166679
aI2424111
aI2445724
aI2534672
aI2749350
aI2955687
aI3022697
aI3047885
aI3085883
aI3272973
aI3423900
aI3427306
aI3503953
aI3969942
aI4134323
aI4402065
aI4456443
aI4462792
aI4524732
aI4602036
aI4649435
aI4694550
aI4932215
aI5126991
aI5212420
aI5436168
aI5521236
aI6041426
aI6564065
aI6578008
aI7227401
aI7525395
aI8161055
aI8310364
aI11656665
aI11661890
aI11871890
aI12663454
aI18322878
aI154823176
asI135823766
(lp80
I11531487
aI16665204
asI2445724
(lp81
I823179
aI2067334
aI2298846
aI2534672
aI2749350
aI3423900
aI3489196
aI3690728
aI4134323
aI4415603
aI4462792
aI5170532
aI6578008
aI7142997
aI7227401
aI7525395
aI7950737
aI10822578
aI11871890
aI50509720
aI59377168
aI63282622
aI85677663
asI67160479
(lp82
I337032
aI642565
aI1576059
aI1628224
aI2039481
aI2709150
aI3171461
aI3211230
aI3272973
aI3533673
aI3945263
aI5725487
aI5740275
aI6337282
aI7210301
aI8898445
aI10843436
aI11045234
aI11493685
aI11531487
aI12073500
aI12103340
aI12305229
aI17445314
aI17645989
aI20204808
aI22097964
aI23416977
aI24960877
aI26231519
aI26707251
aI26844369
aI32427674
aI36620360
aI38165520
aI38990041
aI40976682
aI41130644
aI41853154
aI43348979
aI49406612
aI53877646
aI55483095
aI58819874
aI63504046
aI76705031
aI78068394
aI82409195
aI96517058
aI108219695
aI137074674
aI139365724
aI149072396
aI156146269
aI156400262
aI181562984
aI197540093
asI4575649
(lp83
I868976
aI3272973
aI3367292
aI3427306
aI3503953
aI4462792
aI4524732
aI4649435
aI4932215
aI5521236
aI6041426
aI7102538
aI8310364
aI9422540
aI9687459
aI10032063
aI18006023
aI39033081
aI55065384
aI122111395
asI9687459
(lp84
I823179
aI3272973
aI3365230
aI3958533
aI4250608
aI4575649
aI4870053
aI6564065
aI7102538
aI8357895
aI8644587
aI9422540
aI10032063
aI12100787
aI14195123
aI14419007
aI18006023
aI19364754
aI49028999
aI55065384
aI77701046
asI4940196
(lp85
I1489338
aI1794556
aI2013678
aI4902378
aI5161123
aI6797432
aI7295632
aI7659812
aI7676417
aI9566269
aI13164261
aI48359445
aI49236330
aI92094476
asI17645989
(lp86
I224552
aI337032
aI642565
aI867582
aI1257981
aI1576059
aI1628224
aI1738161
aI1963369
aI2039481
aI2530452
aI2709150
aI3085883
aI3171461
aI3211230
aI3272973
aI3533673
aI3945263
aI5725487
aI5740275
aI6337282
aI7210301
aI7988989
aI8357895
aI8898445
aI9757312
aI10843436
aI11045234
aI11493685
aI11531487
aI11829392
aI12073500
aI12103340
aI12305229
aI17445314
aI19138731
aI20204808
aI22097964
aI23416977
aI24960877
aI25124243
aI26231519
aI26844369
aI29114306
aI32427674
aI38165520
aI38990041
aI40976682
aI41130644
aI41853154
aI43348979
aI49406612
aI55483095
aI58819874
aI65029737
aI67160479
aI67388399
aI76705031
aI77303348
aI78068394
aI87442515
aI93848406
aI96517058
aI98358711
aI108219695
aI136112029
aI137074674
aI139365724
aI149072396
aI151924147
aI156146269
aI156400262
aI174912561
aI181562984
aI184072820
aI187023566
aI192019818
aI197540093
aI200702506
aI226440450
asI12134823
(lp87
I4334114
aI29461300
aI94875485
aI128324832
aI184414101
aI195536276
aI276945965
asI160173
(lp88
I8357895
aI23416977
aI40976682
aI55483095
aI67388399
aI78068394
aI93848406
aI108219695
aI226440450
asI15440303
(lp89
I2574116
aI2724710
aI2749350
aI3272973
aI3958533
aI4403216
aI4870053
aI5126991
aI6041426
aI7102538
aI7937518
aI8357895
aI9749243
aI9937527
aI11656665
aI12100787
aI12288223
aI12293865
aI13563399
aI14419007
aI18006023
aI18312036
aI19364754
aI20347657
aI28601046
aI32262815
aI49028999
aI50299418
aI60225019
aI62861860
aI77303348
aI98583916
aI124491074
aI146831330
asI28590514
(lp90
I4246065
aI4403216
aI19364754
aI19600783
aI20347657
asI14195123
(lp91
I823179
aI3272973
aI3365230
aI5436168
aI5521236
aI7102538
aI8161055
aI9337624
aI9422540
aI9687459
aI10822578
aI12100787
aI12288223
aI13563399
aI18006023
aI20222256
aI28601046
aI38255473
aI39033081
aI50299418
aI58611990
aI85677663
aI122111395
aI124491074
asI1489338
(lp92
I1627179
aI1787388
aI4753012
aI4940196
aI18322878
aI34805445
asI153172414
(lp93
I823179
aI1475550
aI1723039
aI3958533
aI4250608
aI4403216
aI6564065
aI7102538
aI7937518
aI8422151
aI9006308
aI9337624
aI9937527
aI10032063
aI10822578
aI12288223
aI12293865
aI12821547
aI13563399
aI14386267
aI14419007
aI14480835
aI16665204
aI18006023
aI18312036
aI19176414
aI20347657
aI27924385
aI28601046
aI38492261
aI44891108
aI57243836
aI59377168
aI61758963
aI62861860
aI68793847
aI98583916
aI106637969
aI145136254
asI17445314
(lp94
I3211230
aI3533673
aI8898445
aI11493685
aI11531487
aI12073500
aI17645989
aI20204808
aI24960877
aI38165520
aI137074674
aI139365724
aI149072396
asI3047885
(lp95
I12662
aI1688214
aI2972157
aI3022697
aI3085883
aI3503953
aI3958533
aI4338236
aI4402065
aI4403216
aI4447169
aI4456443
aI4462792
aI4649435
aI6041426
aI6514424
aI7950737
aI8161055
asI3111376
(lp96
I44301
aI44843
aI65324
aI868976
aI1213158
aI1471861
aI1475550
aI1723039
aI1782672
aI1787388
aI1812082
aI2166679
aI2178259
aI2551939
aI2749350
aI3272973
aI3355127
aI3423900
aI3969942
aI3971116
aI4250608
aI4447169
aI4649435
aI4663095
aI4694550
aI4785467
aI4932215
aI5436168
aI6564065
aI8310364
aI8422151
aI10032063
aI11656665
aI11661890
aI18322878
asI4649435
(lp97
I44301
aI823179
aI868976
aI1475550
aI1688214
aI1787388
aI2067334
aI2298846
aI2424111
aI2528914
aI2534672
aI2749350
aI2955687
aI2972157
aI3022697
aI3047885
aI3085883
aI3111376
aI3272973
aI3355127
aI3365230
aI3367292
aI3423900
aI3427306
aI3503953
aI3958533
aI3969942
aI4134323
aI4250608
aI4338188
aI4338236
aI4402065
aI4403216
aI4447169
aI4456443
aI4462792
aI4524732
aI4575649
aI4602036
aI4694550
aI4753012
aI4870053
aI4932215
aI5126991
aI5170532
aI5207688
aI5212420
aI5436168
aI5521236
aI5882133
aI6041426
aI6514424
aI6564065
aI6578008
aI7102538
aI7227401
aI7287778
aI7525395
aI7867790
aI7937518
aI7950737
aI8161055
aI8310364
aI8357895
aI8644587
aI9006308
aI9209743
aI10032063
aI11656665
aI11661890
aI11747688
aI12100787
aI12293865
aI12663454
aI18006023
aI18322878
aI36565016
aI39033081
aI49028999
aI55065384
aI58611990
aI77701046
aI122111395
aI138482951
aI154823176
asI1481193
(lp98
I362794
aI1193224
aI3205636
asI2955687
(lp99
I12662
aI823179
aI2424111
aI2724710
aI2749350
aI3022697
aI3085883
aI3272973
aI3503953
aI3969942
aI4338188
aI4338236
aI4402065
aI4403216
aI4447169
aI4456443
aI4524732
aI4649435
aI4663095
aI4932215
aI5212420
aI6514424
aI7950737
aI8357895
aI11656665
aI154823176
asI3355127
(lp100
I44301
aI224552
aI868976
aI1787388
aI1812082
aI3111376
aI3215452
aI3272973
aI3365230
aI4250608
aI4649435
aI4694550
aI4932215
aI5126991
aI5436168
aI5740275
aI6564065
aI8357895
aI10032063
aI11656665
aI11661890
aI11747688
aI18322878
aI208981271
asI1174012
(lp101
I44301
aI44843
aI61798
aI362794
aI741634
aI823179
aI868976
aI1213158
aI1627179
aI1782672
aI2749350
aI3365230
aI4250608
aI4403216
aI4462792
aI4785467
aI4870053
aI5126991
aI5436168
aI6564065
aI7867790
aI8357895
aI8422151
aI9006308
aI9209743
aI9337624
aI9422540
aI12293865
aI12821547
aI14386267
aI28601046
aI35791758
aI38492261
aI39033081
aI122111395
aI168942768
aI186064669
asI1257981
(lp102
I224552
aI337032
aI642565
aI867582
aI1576059
aI1628224
aI2530452
aI3211230
aI3533673
aI5740275
aI6337282
aI7988989
aI9757312
aI10843436
aI11045234
aI11493685
aI11829392
aI12073500
aI12103340
aI17645989
aI20204808
aI24960877
aI26844369
aI38165520
aI38990041
aI41853154
aI43348979
aI49406612
aI55483095
aI65029737
aI76705031
aI87442515
aI98358711
aI137074674
aI139365724
aI151924147
aI181562984
aI187023566
aI192019818
aI197540093
asI100890709
(lp103
I362794
aI4338236
aI9337624
aI28601046
aI57243836
aI62861860
aI134506574
asI7676417
(lp104
I663032
aI1000576
aI1627179
aI1794556
aI2528914
aI4902378
aI4940196
aI5161123
aI7295632
aI7659812
aI8311563
aI13164261
aI17931307
aI48359445
aI49236330
aI92094476
asI3205636
(lp105
I1193224
aI1481193
asI3969542
(lp106
sI154823176
(lp107
I823179
aI2574116
aI2749350
aI2955687
aI3022697
aI3085883
aI3503953
aI4134323
aI4338236
aI4403216
aI4456443
aI4649435
aI5212420
aI6564065
aI7950737
aI10032063
aI10822578
asI4338188
(lp108
I823179
aI1385997
aI1688214
aI2424111
aI2574116
aI2749350
aI2955687
aI2972157
aI3022697
aI3085883
aI3340222
aI3427306
aI3503953
aI4338236
aI4402065
aI4403216
aI4649435
aI4932215
aI5212420
aI5358450
aI6514424
aI7287778
aI14419007
asI61770256
(lp109
I2750169
aI17097306
asI4694550
(lp110
I44301
aI44843
aI823179
aI868976
aI1475550
aI1723039
aI1787388
aI2534672
aI2749350
aI3085883
aI3111376
aI3355127
aI3427306
aI3503953
aI4250608
aI4462792
aI4524732
aI4602036
aI4649435
aI5126991
aI5212420
aI5436168
aI6041426
aI6564065
aI6578008
aI7950737
aI8161055
aI8357895
aI9006308
aI10032063
aI11656665
aI18322878
asI5265943
(lp111
I2166679
aI4415603
aI5170532
aI50509720
aI77701046
asI50299418
(lp112
I823179
aI868976
aI1213158
aI1475550
aI2574116
aI2724710
aI2749350
aI3272973
aI3365230
aI3427306
aI3958533
aI4403216
aI4870053
aI4932215
aI5126991
aI5436168
aI6041426
aI6279501
aI7102538
aI7937518
aI8027201
aI8182109
aI8357895
aI8610956
aI9006308
aI9209743
aI9422540
aI9749243
aI9937527
aI10822578
aI11656665
aI12100787
aI12288223
aI12293865
aI12821547
aI13563399
aI14195123
aI14386267
aI14419007
aI15440303
aI18006023
aI19364754
aI20222256
aI20347657
aI28601046
aI32262815
aI38165520
aI40930566
aI55065384
aI58611990
aI58819874
aI59377168
aI60225019
aI61758963
aI68793847
aI76705031
aI77303348
aI77701046
aI122111395
aI124491074
aI134506574
aI139365724
aI140195205
aI146831330
aI192288556
aI208981271
asI12073500
(lp113
I337032
aI642565
aI867582
aI1257981
aI1576059
aI1738161
aI2039481
aI2530452
aI3171461
aI3272973
aI3945263
aI5725487
aI5740275
aI6337282
aI7210301
aI7988989
aI8898445
aI9757312
aI10843436
aI11045234
aI11493685
aI11531487
aI11829392
aI12103340
aI12305229
aI17445314
aI17645989
aI20204808
aI24960877
aI26231519
aI26844369
aI29114306
aI32427674
aI36620360
aI38165520
aI41853154
aI43348979
aI55483095
aI58819874
aI67160479
aI76705031
aI87442515
aI93848406
aI96517058
aI98358711
aI108219695
aI137074674
aI139365724
aI149072396
aI181562984
aI192019818
aI197540093
asI4334114
(lp114
I12134823
aI23403596
aI29461300
aI94875485
aI124919652
asI62861860
(lp115
I12662
aI362794
aI741634
aI823179
aI868976
aI1213158
aI1471861
aI1723039
aI1787388
aI2724710
aI2749350
aI3085883
aI3215452
aI3272973
aI3365230
aI3503953
aI3958533
aI4246065
aI4403216
aI4793841
aI4870053
aI4932215
aI5126991
aI5436168
aI5521236
aI6564065
aI7102538
aI7937518
aI8182109
aI8357895
aI8422151
aI9006308
aI9337624
aI9422540
aI9937527
aI10032063
aI10822578
aI11656665
aI11747688
aI11871890
aI12100787
aI12288223
aI12293865
aI12821547
aI13563399
aI14386267
aI14419007
aI14480835
aI15440303
aI15860009
aI18006023
aI18312036
aI18322878
aI19176414
aI19364754
aI28601046
aI32262815
aI39033081
aI40930566
aI44891108
aI49028999
aI57243836
aI60225019
aI61758963
aI68793847
aI87076022
aI88620086
aI98583916
aI100890709
aI104102812
aI105211516
aI106637969
aI122111395
aI124491074
aI134506574
aI138482951
aI144190860
aI145136254
aI146831330
aI153172414
aI155667308
aI156104417
aI160452457
aI166942832
aI168323115
aI168942768
aI169168450
aI182308838
aI186064669
aI241090828
asI200702506
(lp116
I224552
aI337032
aI1628224
aI2039481
aI2530452
aI2709150
aI3211230
aI3533673
aI5725487
aI5740275
aI6337282
aI7210301
aI7988989
aI10843436
aI11493685
aI11829392
aI12103340
aI17645989
aI23416977
aI24960877
aI29114306
aI38165520
aI41853154
aI43348979
aI49406612
aI55483095
aI76705031
aI77303348
aI151924147
aI156146269
aI181562984
aI192019818
asI4246065
(lp117
I65324
aI703770
aI868976
aI1213158
aI1688214
aI1824853
aI2749350
aI3272973
aI3365230
aI4338236
aI4403216
aI4870053
aI5436168
aI6279501
aI8357895
aI9937527
aI11656665
aI13563399
aI14480835
aI17097306
aI18006023
aI18322878
aI19364754
aI19600783
aI20347657
aI28590514
aI44891108
aI62861860
aI68793847
aI88620086
aI104102812
aI106637969
aI124491074
aI169168450
aI186064669
aI199517787
aI241090828
asI151924147
(lp118
I224552
aI337032
aI642565
aI867582
aI1257981
aI1628224
aI1738161
aI1963369
aI2530452
aI3085883
aI3211230
aI3533673
aI5725487
aI5740275
aI6337282
aI7210301
aI7988989
aI8898445
aI11045234
aI11493685
aI11531487
aI17645989
aI20204808
aI24960877
aI43348979
aI49406612
aI55483095
aI58819874
aI76705031
aI87442515
aI181562984
aI187023566
aI192019818
aI200702506
asI4338236
(lp119
I12662
aI823179
aI868976
aI1475550
aI1688214
aI1782672
aI2724710
aI2749350
aI2955687
aI2972157
aI3022697
aI3047885
aI3085883
aI3215452
aI3272973
aI3367292
aI3503953
aI3782943
aI4246065
aI4250608
aI4338188
aI4402065
aI4403216
aI4456443
aI4524732
aI4649435
aI4932215
aI5126991
aI5212420
aI5521236
aI6041426
aI6514424
aI7227401
aI7287778
aI8310364
aI8357895
aI10032063
aI11656665
aI11661890
aI11747688
aI19600783
aI36565016
aI100890709
aI154823176
asI11661890
(lp120
I12662
aI61798
aI65324
aI741634
aI823179
aI868976
aI1475550
aI1723039
aI1782672
aI1787388
aI1812082
aI2067334
aI2166679
aI2178259
aI2424111
aI2528914
aI2551939
aI2574116
aI2724710
aI2749350
aI2825414
aI2972157
aI3022697
aI3085883
aI3111376
aI3132711
aI3355127
aI3423900
aI3503953
aI3782943
aI3971116
aI4250608
aI4338236
aI4447169
aI4524732
aI4649435
aI5436168
aI5882133
aI6564065
aI7227401
aI7950737
aI8310364
aI18322878
asI17097306
(lp121
I891254
aI2750169
aI2768474
aI3171461
aI3272973
aI4246065
aI4870053
aI8357895
aI9937527
aI11656665
aI18006023
aI19364754
aI38165520
aI61770256
aI77303348
aI108219695
aI216093294
asI156146269
(lp122
I642565
aI1628224
aI3211230
aI3533673
aI5740275
aI6337282
aI7988989
aI9757312
aI10843436
aI11045234
aI12103340
aI17645989
aI20204808
aI22097964
aI24960877
aI25124243
aI26844369
aI29114306
aI38165520
aI41853154
aI43348979
aI55483095
aI65029737
aI67160479
aI76705031
aI96517058
aI137074674
aI149072396
aI156400262
aI181562984
aI187023566
aI200702506
asI6691431
(lp123
I7659812
aI9303982
aI18675812
aI38571737
aI99241624
asI216093294
(lp124
I383174
aI891254
aI908771
aI2097438
aI2750169
aI6966143
aI17097306
asI868976
(lp125
I44301
aI44843
aI61798
aI65324
aI362794
aI823179
aI908771
aI1174012
aI1213158
aI1471861
aI1475550
aI1688214
aI1723039
aI1782672
aI1787388
aI2178259
aI2424111
aI2724710
aI2749350
aI3022697
aI3085883
aI3111376
aI3215452
aI3272973
aI3355127
aI3365230
aI3367292
aI3427306
aI3503953
aI3958533
aI3969942
aI4246065
aI4250608
aI4338236
aI4403216
aI4462792
aI4524732
aI4575649
aI4602036
aI4649435
aI4663095
aI4694550
aI4785467
aI4870053
aI4932215
aI5126991
aI5212420
aI5436168
aI6041426
aI6564065
aI6578008
aI7102538
aI7227401
aI7867790
aI7950737
aI8161055
aI8182109
aI8310364
aI8357895
aI8422151
aI8610956
aI8644587
aI9006308
aI9337624
aI9422540
aI9749243
aI10032063
aI11656665
aI11661890
aI11747688
aI11871890
aI12100787
aI12288223
aI12293865
aI12663454
aI13563399
aI14419007
aI18006023
aI18312036
aI18322878
aI19364754
aI19600783
aI20347657
aI28601046
aI39033081
aI49028999
aI50299418
aI55065384
aI58611990
aI62861860
aI77303348
aI98583916
aI122111395
aI124491074
aI134506574
aI138482951
asI16665204
(lp126
I823179
aI1471861
aI1723039
aI3958533
aI4403216
aI4870053
aI7937518
aI8357895
aI9209743
aI9749243
aI9937527
aI12100787
aI12288223
aI12293865
aI13563399
aI14386267
aI14419007
aI18006023
aI19176414
aI19364754
aI20347657
aI27924385
aI28601046
aI38492261
aI40930566
aI57243836
aI59377168
aI61758963
aI68793847
aI85716066
aI104102812
aI135823766
aI146831330
aI153172414
aI169168450
aI208981271
asI63282622
(lp127
I2067334
aI2298846
aI2445724
aI3132711
aI3423900
aI3690728
aI50509720
asI4932215
(lp128
I61798
aI337032
aI823179
aI868976
aI1475550
aI1688214
aI1723039
aI1787388
aI2424111
aI2528914
aI2534672
aI2724710
aI2749350
aI2955687
aI3085883
aI3111376
aI3171461
aI3215452
aI3272973
aI3355127
aI3365230
aI3367292
aI3427306
aI3503953
aI3958533
aI3969942
aI4250608
aI4338188
aI4338236
aI4403216
aI4447169
aI4456443
aI4462792
aI4524732
aI4575649
aI4649435
aI4663095
aI4870053
aI5126991
aI5212420
aI5436168
aI5521236
aI6041426
aI6279501
aI6514424
aI6564065
aI7102538
aI7227401
aI7867790
aI7950737
aI8027201
aI8161055
aI8182109
aI8310364
aI8357895
aI8422151
aI8610956
aI9006308
aI9209743
aI9337624
aI9422540
aI9937527
aI10032063
aI10624507
aI10843436
aI11656665
aI11747688
aI12100787
aI12288223
aI12293865
aI13563399
aI14419007
aI18006023
aI18312036
aI18322878
aI19176414
aI19364754
aI28601046
aI29114306
aI36565016
aI40930566
aI49028999
aI50299418
aI55065384
aI58611990
aI58819874
aI61758963
aI62861860
aI68793847
aI77303348
aI96517058
aI122111395
aI134506574
aI146831330
aI150589497
aI169168450
asI268642940
(lp129
sI145136254
(lp130
I2724710
aI4403216
aI6279501
aI8357895
aI9337624
aI9937527
aI15860009
aI32427674
aI44891108
aI59377168
aI62861860
aI153172414
aI156104417
aI168323115
aI182308838
asI9757312
(lp131
I337032
aI642565
aI1257981
aI1576059
aI1628224
aI1738161
aI2039481
aI2530452
aI3533673
aI5725487
aI5740275
aI6337282
aI7988989
aI10843436
aI11045234
aI11493685
aI11829392
aI12073500
aI12103340
aI17645989
aI24960877
aI26844369
aI43348979
aI55483095
aI58819874
aI76705031
aI126264427
aI137074674
aI156146269
aI181562984
aI187023566
aI192019818
asI57797251
(lp132
sI156400262
(lp133
I642565
aI1628224
aI1963369
aI2709150
aI3211230
aI3533673
aI5740275
aI7988989
aI8898445
aI10843436
aI11045234
aI12103340
aI17645989
aI22097964
aI23416977
aI24960877
aI26231519
aI26707251
aI29114306
aI38165520
aI40976682
aI41130644
aI43348979
aI49406612
aI55483095
aI63504046
aI67160479
aI76705031
aI82409195
aI94989441
aI136112029
aI137074674
aI156146269
aI181224253
aI181562984
aI187023566
aI192019818
aI226440450
asI4381327
(lp134
I1000576
aI4753012
aI6797432
aI7659812
aI50509720
aI96542788
asI7295632
(lp135
I663032
aI1000576
aI1627179
aI1794556
aI1867680
aI4940196
aI5161123
aI5171533
aI7659812
aI7676417
aI92094476
aI96542788
asI106637969
(lp136
I823179
aI4246065
aI4403216
aI4793841
aI4870053
aI6564065
aI7102538
aI8357895
aI9006308
aI9337624
aI9937527
aI10822578
aI12288223
aI12293865
aI18006023
aI19176414
aI20347657
aI27924385
aI28601046
aI59377168
aI61758963
aI62861860
aI68793847
aI77303348
aI88620086
aI124491074
aI134506574
aI153172414
aI154545004
aI155667308
aI182308838
aI186064669
aI302368209
asI41130644
(lp137
I337032
aI642565
aI867582
aI1576059
aI1628224
aI1738161
aI2039481
aI3211230
aI3945263
aI5725487
aI5740275
aI6337282
aI7210301
aI8357895
aI8898445
aI11531487
aI17645989
aI22097964
aI23416977
aI26231519
aI26707251
aI32427674
aI36620360
aI40976682
aI53877646
aI55483095
aI58819874
aI67160479
aI67388399
aI76705031
aI77303348
aI78068394
aI108219695
aI149072396
aI156400262
aI226440450
aI321263733
asI1688214
(lp138
I12662
aI823179
aI868976
aI1385997
aI2067334
aI2534672
aI2749350
aI3022697
aI3047885
aI3085883
aI3503953
aI4246065
aI4338188
aI4338236
aI4402065
aI4456443
aI4462792
aI4524732
aI4649435
aI4932215
aI5212420
aI5521236
aI6041426
aI6514424
aI7227401
aI7867790
aI7950737
aI8310364
aI9006308
aI12663454
asI12663454
(lp139
I44301
aI61798
aI823179
aI868976
aI1475550
aI1688214
aI1723039
aI2528914
aI2534672
aI2724710
aI3132711
aI4649435
aI5126991
aI7227401
aI7950737
aI8310364
aI9337624
aI10624507
aI10822578
asI1723039
(lp140
I823179
aI868976
aI1213158
aI1475550
aI1782672
aI2178259
aI2749350
aI3111376
aI3365230
aI3503953
aI3958533
aI3971116
aI4250608
aI4403216
aI4447169
aI4694550
aI4870053
aI4932215
aI5436168
aI6564065
aI7102538
aI7937518
aI8357895
aI8422151
aI9337624
aI9422540
aI9937527
aI10822578
aI11661890
aI12288223
aI12293865
aI12663454
aI13563399
aI14386267
aI16665204
aI18006023
aI19364754
aI20347657
aI27924385
aI28601046
aI38492261
aI40930566
aI57243836
aI59377168
aI60225019
aI61758963
aI62861860
aI68793847
aI85677663
aI85716066
aI98583916
aI153172414
aI160452457
aI164791675
aI169168450
aI186064669
aI208981271
asI78068394
(lp141
I160173
aI337032
aI642565
aI867582
aI1447491
aI1576059
aI1628224
aI1738161
aI2530452
aI3171461
aI3211230
aI3272973
aI3945263
aI5740275
aI6337282
aI7210301
aI8357895
aI8898445
aI11531487
aI17645989
aI22097964
aI23416977
aI26231519
aI29114306
aI32427674
aI36620360
aI40976682
aI41130644
aI43348979
aI53877646
aI55483095
aI58819874
aI67160479
aI67388399
aI77303348
aI93848406
aI108219695
aI126264427
aI149072396
aI181224253
aI184072820
aI226440450
asI1866412
(lp142
I6674491
asI227137309
(lp143
I141454512
aI243580505
asI4524732
(lp144
I61798
aI868976
aI1688214
aI2067334
aI2166679
aI2298846
aI2424111
aI2534672
aI2749350
aI2955687
aI3022697
aI3085883
aI3132711
aI3215452
aI3272973
aI3367292
aI3423900
aI3427306
aI3503953
aI3958533
aI3969942
aI4338236
aI4402065
aI4403216
aI4447169
aI4456443
aI4462792
aI4575649
aI4649435
aI4663095
aI4694550
aI4785467
aI4932215
aI5126991
aI5212420
aI5882133
aI6041426
aI7102538
aI7950737
aI8310364
aI8357895
aI8422151
aI10032063
aI11661890
aI11747688
aI14419007
aI58611990
aI77701046
aI122111395
asI21142205
(lp145
I3272973
aI5659921
aI9937527
aI18006023
aI51350895
aI70957191
aI122111395
aI294842534
aI298774704
asI145558214
(lp146
I3272973
aI294842534
asI28601046
(lp147
I362794
aI823179
aI868976
aI1174012
aI1213158
aI1475550
aI1723039
aI1787388
aI2528914
aI2574116
aI2724710
aI2749350
aI3272973
aI3365230
aI3958533
aI4403216
aI4793841
aI4870053
aI4932215
aI5126991
aI5436168
aI5521236
aI6041426
aI6279501
aI6564065
aI7102538
aI8182109
aI8357895
aI9006308
aI9209743
aI9337624
aI11656665
aI11871890
aI12100787
aI12293865
aI12821547
aI13563399
aI14195123
aI14386267
aI14419007
aI14480835
aI15440303
aI15860009
aI16665204
aI18006023
aI18312036
aI18322878
aI19176414
aI19364754
aI19600783
aI20347657
aI24213035
aI27924385
aI32262815
aI38492261
aI40930566
aI44891108
aI49028999
aI50299418
aI57243836
aI58611990
aI58819874
aI59377168
aI60225019
aI61758963
aI62861860
aI68793847
aI85716066
aI100890709
aI104102812
aI106637969
aI122111395
aI124491074
aI134506574
aI146831330
aI153172414
aI155667308
aI156104417
aI169168450
aI182308838
aI186064669
aI199864652
aI208981271
asI55483095
(lp148
I160173
aI224552
aI337032
aI642565
aI867582
aI1257981
aI1447491
aI1576059
aI1628224
aI1738161
aI1963369
aI2039481
aI2530452
aI2709150
aI3085883
aI3171461
aI3211230
aI3272973
aI3533673
aI3945263
aI4403216
aI5725487
aI5740275
aI6337282
aI7210301
aI7988989
aI8357895
aI8898445
aI9757312
aI10843436
aI11045234
aI11493685
aI11531487
aI11829392
aI12073500
aI12103340
aI12305229
aI17645989
aI18006023
aI20204808
aI22097964
aI23416977
aI24960877
aI25124243
aI26231519
aI26707251
aI26844369
aI29114306
aI29122171
aI36620360
aI38165520
aI38990041
aI40976682
aI41130644
aI41853154
aI43348979
aI49406612
aI53877646
aI58819874
aI65029737
aI67160479
aI67388399
aI76705031
aI77303348
aI78068394
aI87442515
aI93848406
aI96517058
aI98358711
aI108219695
aI136112029
aI137074674
aI139365724
aI149072396
aI151924147
aI156146269
aI156400262
aI174912561
aI181562984
aI184072820
aI187023566
aI192019818
aI197540093
aI200702506
asI26231519
(lp149
I337032
aI642565
aI867582
aI1628224
aI1738161
aI2530452
aI3171461
aI3211230
aI3272973
aI5740275
aI6337282
aI7210301
aI7988989
aI8898445
aI11045234
aI11493685
aI11531487
aI11829392
aI12073500
aI12103340
aI17645989
aI19138731
aI20204808
aI22097964
aI24960877
aI29114306
aI32427674
aI36620360
aI38165520
aI38990041
aI40976682
aI41130644
aI41853154
aI43348979
aI49406612
aI55483095
aI58819874
aI67160479
aI76705031
aI78068394
aI82409195
aI96517058
aI108219695
aI137074674
aI139365724
aI149072396
aI156400262
aI181562984
aI184072820
aI197540093
asI1213158
(lp150
I12662
aI44301
aI44843
aI61798
aI65324
aI362794
aI703770
aI741634
aI823179
aI868976
aI1174012
aI1471861
aI1723039
aI1782672
aI1787388
aI1824853
aI2424111
aI2528914
aI2551939
aI2574116
aI2724710
aI2749350
aI3111376
aI3365230
aI3503953
aI4246065
aI4250608
aI4403216
aI4793841
aI4870053
aI5126991
aI5436168
aI6564065
aI7102538
aI7937518
aI8357895
aI9006308
aI9337624
aI9422540
aI9937527
aI10032063
aI10822578
aI11656665
aI11871890
aI12100787
aI12288223
aI12293865
aI13563399
aI18006023
aI18322878
aI19364754
aI19600783
aI28601046
aI50299418
aI62861860
aI77303348
aI124491074
aI134506574
aI138482951
aI146831330
aI164791675
aI166942832
asI302368209
(lp151
I106637969
asI138846961
(lp152
sI9749243
(lp153
I823179
aI868976
aI2574116
aI2724710
aI3272973
aI3365230
aI3503953
aI3958533
aI4403216
aI4870053
aI5126991
aI7102538
aI7937518
aI8027201
aI8357895
aI9422540
aI10032063
aI11656665
aI12293865
aI12821547
aI14386267
aI14419007
aI15440303
aI16665204
aI18006023
aI18312036
aI20347657
aI24213035
aI32262815
aI49028999
aI50299418
aI59377168
aI60225019
aI98583916
aI104102812
aI122111395
aI124491074
aI140195205
aI182308838
asI6337282
(lp154
I224552
aI337032
aI642565
aI867582
aI1257981
aI1576059
aI1628224
aI1738161
aI1963369
aI2039481
aI2530452
aI2709150
aI2768474
aI3085883
aI3171461
aI3211230
aI3272973
aI3533673
aI3945263
aI5725487
aI5740275
aI7210301
aI8357895
aI8898445
aI9757312
aI10843436
aI11493685
aI11531487
aI11829392
aI12073500
aI12103340
aI12305229
aI17645989
aI19138731
aI20204808
aI22097964
aI23416977
aI24960877
aI26231519
aI26844369
aI29114306
aI38165520
aI38990041
aI40976682
aI41130644
aI41853154
aI43348979
aI49406612
aI55483095
aI58819874
aI67160479
aI67388399
aI76705031
aI77303348
aI78068394
aI87442515
aI93848406
aI96517058
aI108219695
aI137074674
aI149072396
aI151924147
aI156146269
aI174912561
aI181562984
aI184072820
aI192019818
aI197540093
aI200702506
aI226440450
asI44843
(lp155
I12662
aI44301
aI61798
aI65324
aI362794
aI741634
aI868976
aI1174012
aI1213158
aI1471861
aI1782672
aI1787388
aI2424111
aI2551939
aI2724710
aI2749350
aI3111376
aI3272973
aI3365230
aI3503953
aI4403216
aI4694550
aI5436168
aI6041426
aI7102538
aI8357895
aI8610956
aI9337624
aI9422540
aI10032063
aI11747688
aI11871890
aI12100787
aI12288223
aI18322878
aI19364754
aI49028999
aI77303348
aI105211516
aI124491074
aI134506574
asI8422151
(lp156
I362794
aI741634
aI823179
aI868976
aI1174012
aI1475550
aI1723039
aI1787388
aI2749350
aI3111376
aI4250608
aI4403216
aI4462792
aI4524732
aI4663095
aI4870053
aI4932215
aI5126991
aI6564065
aI8310364
aI9006308
aI9337624
aI10822578
aI11747688
aI12293865
aI12821547
aI18312036
aI32262815
aI35791758
aI60225019
aI62861860
aI124491074
aI138482951
aI153172414
aI164791675
asI5436168
(lp157
I44301
aI44843
aI61798
aI65324
aI362794
aI741634
aI823179
aI868976
aI1174012
aI1213158
aI1471861
aI1723039
aI1782672
aI1787388
aI1812082
aI2166679
aI2298846
aI2424111
aI2528914
aI2534672
aI2551939
aI2749350
aI2825414
aI2972157
aI3111376
aI3215452
aI3272973
aI3355127
aI3365230
aI3427306
aI3503953
aI3969942
aI4246065
aI4250608
aI4403216
aI4447169
aI4462792
aI4649435
aI4694550
aI4932215
aI5126991
aI5170532
aI6041426
aI6564065
aI7100223
aI7950737
aI8027201
aI8310364
aI8357895
aI8715311
aI9006308
aI9422540
aI11656665
aI11661890
aI11747688
aI11871890
aI12100787
aI13563399
aI14195123
aI14386267
aI18006023
aI18322878
aI20347657
aI28601046
aI50299418
aI62861860
aI124491074
aI134506574
asI20347657
(lp158
I823179
aI868976
aI1723039
aI2574116
aI2749350
aI3272973
aI3365230
aI4246065
aI4403216
aI4870053
aI5436168
aI6041426
aI6279501
aI6564065
aI7937518
aI8027201
aI8182109
aI8357895
aI8610956
aI9422540
aI9749243
aI9937527
aI10822578
aI11656665
aI12100787
aI12288223
aI12293865
aI13563399
aI14386267
aI14419007
aI15440303
aI16665204
aI18006023
aI18322878
aI19364754
aI24213035
aI27924385
aI28590514
aI28601046
aI38165520
aI38492261
aI40930566
aI44891108
aI50299418
aI57243836
aI58819874
aI59377168
aI61758963
aI68793847
aI77303348
aI85677663
aI104102812
aI106637969
aI121891810
aI122111395
aI124491074
aI146831330
aI153172414
aI166942832
aI169168450
aI178848778
aI186064669
aI192288556
aI241090828
asI8311563
(lp159
I6797432
aI7659812
aI7676417
aI9566269
aI13164261
aI17931307
aI48359445
aI49236330
asI9337624
(lp160
I44843
aI61798
aI65324
aI362794
aI741634
aI823179
aI868976
aI1174012
aI1213158
aI1475550
aI1723039
aI1787388
aI2749350
aI3272973
aI3365230
aI3958533
aI3969942
aI4250608
aI4403216
aI4793841
aI4870053
aI4932215
aI6041426
aI6564065
aI7102538
aI7867790
aI8357895
aI8422151
aI9006308
aI11656665
aI11747688
aI12288223
aI12293865
aI12663454
aI12821547
aI13563399
aI14195123
aI14386267
aI14419007
aI15860009
aI18312036
aI18322878
aI19176414
aI19364754
aI27924385
aI28601046
aI34805445
aI38492261
aI40930566
aI44891108
aI49028999
aI57243836
aI60225019
aI62861860
aI68793847
aI98583916
aI100890709
aI106637969
aI122111395
aI124491074
aI134506574
aI138482951
aI145136254
aI146831330
aI153172414
aI164791675
aI168323115
aI182308838
asI55065384
(lp161
I823179
aI868976
aI2749350
aI3215452
aI3272973
aI3365230
aI3427306
aI3503953
aI3958533
aI4575649
aI4602036
aI4649435
aI4870053
aI4932215
aI5207688
aI5521236
aI6578008
aI7102538
aI8027201
aI8182109
aI8357895
aI8644587
aI9422540
aI9687459
aI10032063
aI12100787
aI12293865
aI14419007
aI18006023
aI18312036
aI19364754
aI39033081
aI49028999
aI50299418
aI58611990
aI77701046
aI122111395
asI3945263
(lp162
I224552
aI337032
aI867582
aI1447491
aI1738161
aI2039481
aI2709150
aI3171461
aI3272973
aI5725487
aI5740275
aI6337282
aI7210301
aI8898445
aI10843436
aI11531487
aI12073500
aI17645989
aI40976682
aI41130644
aI55483095
aI67160479
aI67388399
aI77303348
aI78068394
aI93848406
aI192019818
asI29461300
(lp163
I4334114
aI12134823
aI23403596
aI29573128
aI94875485
aI109399539
aI124919652
aI128324832
aI146010450
aI170978935
aI191512920
aI210127151
asI181224253
(lp164
I867582
aI1576059
aI2709150
aI8357895
aI8898445
aI22097964
aI23416977
aI40976682
aI78068394
aI149072396
aI156400262
asI471871
(lp165
I1385997
aI2574116
aI41853154
aI98358711
asI12305229
(lp166
I642565
aI1628224
aI2039481
aI2530452
aI3533673
aI5725487
aI5740275
aI6337282
aI7210301
aI7988989
aI10843436
aI11045234
aI11493685
aI12073500
aI17645989
aI24960877
aI29114306
aI38165520
aI49406612
aI55483095
aI67160479
aI76705031
aI96517058
aI137074674
aI181562984
aI192019818
aI197540093
asI5126991
(lp167
I362794
aI823179
aI868976
aI1174012
aI1213158
aI1475550
aI1787388
aI2528914
aI2574116
aI2724710
aI2749350
aI3215452
aI3355127
aI3365230
aI3427306
aI3503953
aI3958533
aI3969942
aI4250608
aI4338236
aI4403216
aI4462792
aI4524732
aI4649435
aI4663095
aI4694550
aI4785467
aI4793841
aI4870053
aI4932215
aI5436168
aI6041426
aI6564065
aI7102538
aI7867790
aI7937518
aI7950737
aI8027201
aI8161055
aI8310364
aI8357895
aI8422151
aI9006308
aI9209743
aI9422540
aI9749243
aI10032063
aI11656665
aI11747688
aI12100787
aI12288223
aI12293865
aI12663454
aI12821547
aI13563399
aI14386267
aI14419007
aI15440303
aI18006023
aI18312036
aI18322878
aI19364754
aI27924385
aI28601046
aI36565016
aI40053469
aI49028999
aI50299418
aI58611990
aI60225019
aI62861860
aI68793847
aI77303348
aI77701046
aI105211516
aI122111395
aI124491074
aI134506574
asI93848406
(lp168
I160173
aI337032
aI867582
aI3171461
aI3272973
aI3945263
aI5725487
aI5740275
aI6337282
aI8357895
aI8898445
aI11493685
aI11531487
aI12073500
aI17645989
aI20204808
aI26707251
aI29114306
aI49406612
aI55483095
aI65029737
aI67388399
aI77303348
aI78068394
aI96517058
aI108219695
aI149072396
aI187023566
aI197540093
asI18312036
(lp169
I823179
aI868976
aI2749350
aI3272973
aI3365230
aI3367292
aI3427306
aI3503953
aI3958533
aI3969942
aI4403216
aI4870053
aI4932215
aI5126991
aI6041426
aI7102538
aI8027201
aI8182109
aI8357895
aI8422151
aI9209743
aI9337624
aI9422540
aI9749243
aI10032063
aI11656665
aI11747688
aI12100787
aI12288223
aI12293865
aI12821547
aI13563399
aI14386267
aI14419007
aI15440303
aI18006023
aI18322878
aI19364754
aI28601046
aI32262815
aI49028999
aI55065384
aI60225019
aI62861860
aI98583916
aI124491074
aI153172414
asI2724710
(lp170
I12662
aI44301
aI44843
aI61798
aI823179
aI868976
aI1213158
aI1787388
aI2067334
aI2298846
aI2424111
aI2528914
aI2749350
aI2955687
aI2972157
aI3132711
aI3215452
aI3423900
aI3503953
aI3690728
aI3958533
aI4338236
aI4403216
aI4447169
aI4456443
aI4753012
aI4793841
aI4870053
aI4932215
aI5126991
aI5170532
aI5521236
aI5882133
aI7102538
aI7867790
aI7937518
aI8027201
aI8161055
aI8310364
aI8357895
aI9006308
aI9422540
aI9749243
aI9937527
aI10032063
aI10624507
aI10822578
aI11656665
aI11661890
aI11747688
aI12100787
aI12288223
aI12293865
aI12663454
aI13563399
aI15440303
aI18006023
aI18322878
aI19364754
aI27924385
aI28601046
aI36565016
aI38492261
aI44891108
aI50299418
aI58611990
aI62861860
aI122111395
aI145136254
asI151765137
(lp171
I15156485
aI68003403
aI94875485
aI109399539
aI124919652
aI128324832
aI170978935
aI184414101
aI238890085
asI3533673
(lp172
I224552
aI337032
aI867582
aI1257981
aI1628224
aI1738161
aI2530452
aI3171461
aI3211230
aI5725487
aI5740275
aI6337282
aI7988989
aI8898445
aI9757312
aI10843436
aI11045234
aI11493685
aI11531487
aI12103340
aI12305229
aI17445314
aI17645989
aI20204808
aI24960877
aI25124243
aI26844369
aI29114306
aI38165520
aI38990041
aI41853154
aI43348979
aI55483095
aI58819874
aI67160479
aI76705031
aI77303348
aI96517058
aI137074674
aI139365724
aI149072396
aI151924147
aI156146269
aI156400262
aI181562984
aI187023566
aI192019818
aI200702506
asI154545004
(lp173
I823179
aI3272973
aI14480835
aI106637969
aI121891810
aI199517787
asI2424111
(lp174
I44301
aI44843
aI741634
aI823179
aI868976
aI1213158
aI1787388
aI2067334
aI2166679
aI2178259
aI2298846
aI2528914
aI2534672
aI2724710
aI2749350
aI2955687
aI3022697
aI3085883
aI3132711
aI3215452
aI3423900
aI3503953
aI3782943
aI4338188
aI4403216
aI4524732
aI4649435
aI4753012
aI4932215
aI5436168
aI5882133
aI6578008
aI7950737
aI8161055
aI8310364
aI10032063
aI10822578
aI11661890
aI11871890
aI12288223
aI14419007
aI18322878
aI50509720
aI124491074
asI5358450
(lp175
I1385997
aI2972157
aI3022697
aI3085883
aI3340222
aI3503953
aI4338188
aI4402065
aI20461028
asI6966143
(lp176
I891254
aI2097438
aI216093294
asI2067334
(lp177
I44301
aI823179
aI1688214
aI2166679
aI2298846
aI2424111
aI2445724
aI2528914
aI2534672
aI2551939
aI2724710
aI2749350
aI3085883
aI3132711
aI3423900
aI3489196
aI3503953
aI3690728
aI3782943
aI4415603
aI4456443
aI4524732
aI4649435
aI4753012
aI5882133
aI7525395
aI8310364
aI11661890
aI11871890
aI63282622
asI35791758
(lp178
I22315
aI61798
aI741634
aI1174012
aI1627179
aI1782672
aI2528914
aI4250608
aI8161055
aI8422151
aI9303982
aI10032063
aI18322878
aI34805445
asI52179855
(lp179
I60225019
aI199517787
asI1782672
(lp180
I12662
aI44843
aI61798
aI65324
aI362794
aI703770
aI741634
aI823179
aI868976
aI1174012
aI1213158
aI1471861
aI1627179
aI1723039
aI1787388
aI1812082
aI2166679
aI2178259
aI2551939
aI2749350
aI2825414
aI3111376
aI3365230
aI3503953
aI4338236
aI4402065
aI4403216
aI5212420
aI5436168
aI7950737
aI8310364
aI9006308
aI10032063
aI11661890
aI35791758
aI124491074
aI138482951
asI4402065
(lp181
I823179
aI1688214
aI1782672
aI2298846
aI2534672
aI2749350
aI2955687
aI3022697
aI3047885
aI3085883
aI3503953
aI4338188
aI4338236
aI4456443
aI4462792
aI4524732
aI4649435
aI5212420
aI5358450
aI5521236
aI6041426
aI6514424
aI6564065
aI7227401
aI7950737
aI8310364
asI19364754
(lp182
I44843
aI823179
aI868976
aI1213158
aI1475550
aI1723039
aI1787388
aI2528914
aI2574116
aI2724710
aI2749350
aI3272973
aI3365230
aI3958533
aI3969942
aI4246065
aI4403216
aI4793841
aI4870053
aI4932215
aI5126991
aI6041426
aI6279501
aI6564065
aI7102538
aI7937518
aI8027201
aI8182109
aI8357895
aI8610956
aI8644587
aI9006308
aI9337624
aI9422540
aI9687459
aI9937527
aI10032063
aI10822578
aI11656665
aI12100787
aI12288223
aI12293865
aI13563399
aI14386267
aI14419007
aI14480835
aI15440303
aI16665204
aI17097306
aI18006023
aI18312036
aI18322878
aI19176414
aI20222256
aI20347657
aI24213035
aI27924385
aI28590514
aI28601046
aI32262815
aI38492261
aI40930566
aI44891108
aI49028999
aI50299418
aI55065384
aI57243836
aI58611990
aI58819874
aI60225019
aI61758963
aI62861860
aI68793847
aI76705031
aI77303348
aI77701046
aI104102812
aI105211516
aI122111395
aI124491074
aI134506574
aI139365724
aI140195205
aI146831330
aI156104417
aI166942832
aI169168450
aI182308838
aI186064669
aI192288556
aI208981271
asI3969942
(lp183
I823179
aI868976
aI1475550
aI1787388
aI2574116
aI2749350
aI2955687
aI3085883
aI3111376
aI3215452
aI3272973
aI3367292
aI3427306
aI3503953
aI3782943
aI3958533
aI4403216
aI4447169
aI4456443
aI4462792
aI4524732
aI4602036
aI4649435
aI4663095
aI4785467
aI4932215
aI5126991
aI5207688
aI5436168
aI6041426
aI6578008
aI7102538
aI7867790
aI7950737
aI8161055
aI8310364
aI8357895
aI8644587
aI9006308
aI9209743
aI9337624
aI10032063
aI11656665
aI11747688
aI12100787
aI14419007
aI18006023
aI18312036
aI18322878
aI19364754
aI36565016
aI49028999
aI58611990
aI105211516
aI124491074
aI134506574
asI104102812
(lp184
I823179
aI1471861
aI1475550
aI1918327
aI2749350
aI3272973
aI4246065
aI4403216
aI4870053
aI6279501
aI6564065
aI8357895
aI9006308
aI9749243
aI9937527
aI10822578
aI11656665
aI13563399
aI14480835
aI16665204
aI18006023
aI19176414
aI19364754
aI19600783
aI20347657
aI28601046
aI32262815
aI33476650
aI44891108
aI58819874
aI59377168
aI60225019
aI61758963
aI62861860
aI68793847
aI77303348
aI88620086
aI98147557
aI121891810
aI124491074
aI134506574
aI141454512
aI144190860
aI146831330
aI155667308
aI156104417
aI166942832
aI168942768
aI169168450
aI182308838
aI186064669
aI199517787
aI199864652
asI2749350
(lp185
I12662
aI44843
aI362794
aI823179
aI868976
aI1174012
aI1213158
aI1475550
aI1627179
aI1688214
aI1723039
aI1782672
aI1787388
aI2067334
aI2424111
aI2445724
aI2528914
aI2574116
aI2724710
aI2955687
aI2972157
aI3022697
aI3085883
aI3111376
aI3215452
aI3272973
aI3365230
aI3367292
aI3427306
aI3503953
aI3958533
aI3969942
aI4246065
aI4250608
aI4338188
aI4338236
aI4402065
aI4403216
aI4447169
aI4456443
aI4462792
aI4524732
aI4649435
aI4663095
aI4694550
aI4785467
aI4793841
aI4870053
aI4932215
aI5126991
aI5212420
aI5436168
aI5521236
aI6041426
aI6279501
aI6564065
aI6578008
aI7102538
aI7525395
aI7867790
aI7950737
aI8027201
aI8161055
aI8182109
aI8310364
aI8357895
aI8422151
aI9006308
aI9337624
aI9422540
aI9937527
aI10032063
aI11656665
aI11661890
aI11747688
aI11871890
aI12100787
aI12288223
aI12293865
aI13563399
aI14386267
aI14419007
aI15440303
aI18006023
aI18312036
aI18322878
aI19176414
aI19364754
aI20347657
aI27924385
aI28601046
aI32262815
aI36565016
aI38255473
aI38492261
aI40930566
aI44891108
aI49028999
aI50299418
aI55065384
aI58611990
aI58819874
aI61758963
aI62861860
aI68793847
aI77303348
aI98583916
aI104102812
aI105211516
aI122111395
aI124491074
aI134506574
aI138482951
aI146831330
aI154823176
aI155667308
aI166942832
aI168323115
aI168942768
aI169168450
aI186064669
aI241090828
asI10822578
(lp186
I823179
aI1213158
aI1475550
aI1723039
aI2424111
aI2445724
aI2534672
aI2724710
aI3367292
aI3958533
aI4250608
aI4403216
aI4753012
aI4870053
aI6041426
aI6564065
aI7937518
aI8027201
aI8422151
aI9006308
aI9422540
aI9937527
aI12293865
aI12663454
aI13563399
aI14195123
aI18006023
aI19364754
aI20222256
aI20347657
aI50299418
aI60225019
aI62861860
aI88620086
aI104102812
aI106637969
aI153172414
aI154823176
aI155667308
aI186064669
asI2972157
(lp187
I1385997
aI1812082
aI2166679
aI2724710
aI2749350
aI3022697
aI3047885
aI3340222
aI4338188
aI4338236
aI4403216
aI4649435
aI5212420
aI5358450
aI5436168
aI5521236
aI7525395
aI11661890
aI11871890
aI20461028
asI10032063
(lp188
I12662
aI44301
aI44843
aI65324
aI823179
aI868976
aI1213158
aI1471861
aI1475550
aI1782672
aI1787388
aI2424111
aI2528914
aI2574116
aI2724710
aI2749350
aI3022697
aI3085883
aI3111376
aI3215452
aI3272973
aI3355127
aI3365230
aI3427306
aI3503953
aI3958533
aI3969942
aI4250608
aI4338236
aI4403216
aI4456443
aI4524732
aI4575649
aI4649435
aI4694550
aI4785467
aI4870053
aI4932215
aI5126991
aI5521236
aI6564065
aI6578008
aI7102538
aI7227401
aI8161055
aI8182109
aI8310364
aI8357895
aI8644587
aI9006308
aI9422540
aI9687459
aI9749243
aI11656665
aI11747688
aI11871890
aI12100787
aI12288223
aI12293865
aI14419007
aI18006023
aI18312036
aI18322878
aI19364754
aI20222256
aI33476650
aI35791758
aI36565016
aI38255473
aI39033081
aI40053469
aI49028999
aI55065384
aI58611990
aI62861860
aI77701046
aI122111395
aI124491074
aI153172414
aI154823176
aI182308838
asI4447169
(lp189
I1723039
aI1812082
aI2530452
aI2551939
aI2724710
aI2749350
aI2825414
aI2955687
aI3047885
aI3085883
aI3111376
aI3969942
aI4250608
aI4403216
aI4462792
aI4524732
aI4649435
aI4932215
aI5207688
aI5436168
aI6578008
aI8310364
aI9006308
aI11661890
aI18322878
aI58611990
asI96517058
(lp190
I337032
aI642565
aI867582
aI1738161
aI2039481
aI2530452
aI3171461
aI3211230
aI3272973
aI3533673
aI4932215
aI5725487
aI5740275
aI6337282
aI7210301
aI8898445
aI10843436
aI11493685
aI11531487
aI11829392
aI12073500
aI12103340
aI12305229
aI17645989
aI20204808
aI22097964
aI23416977
aI24960877
aI26231519
aI29114306
aI32427674
aI36620360
aI38165520
aI40976682
aI41853154
aI43348979
aI49406612
aI55483095
aI58819874
aI65029737
aI67160479
aI76705031
aI77303348
aI82409195
aI87442515
aI93848406
aI98358711
aI108219695
aI136112029
aI137074674
aI139365724
aI149072396
aI156146269
aI174912561
aI181562984
aI184072820
aI197540093
asI2876356
(lp191
I663032
aI5161123
aI5171533
aI50509720
asI1475550
(lp192
I823179
aI868976
aI1723039
aI2749350
aI3085883
aI3111376
aI3365230
aI3367292
aI3503953
aI3958533
aI3969942
aI4250608
aI4338236
aI4462792
aI4602036
aI4649435
aI4663095
aI4694550
aI4785467
aI4870053
aI4932215
aI5126991
aI5521236
aI6564065
aI7102538
aI7867790
aI7950737
aI8182109
aI8310364
aI8422151
aI9006308
aI9337624
aI10032063
aI10822578
aI11656665
aI11661890
aI11747688
aI12288223
aI12293865
aI12663454
aI13563399
aI14386267
aI14480835
aI19364754
aI28601046
aI49028999
aI50299418
aI57243836
aI58611990
aI59377168
aI60225019
aI68793847
aI104102812
aI153172414
aI160452457
aI164791675
aI169168450
aI186064669
asI12821547
(lp193
I823179
aI1174012
aI3365230
aI3367292
aI3958533
aI4403216
aI4793841
aI4870053
aI5126991
aI7102538
aI7937518
aI8027201
aI8357895
aI8422151
aI9209743
aI9337624
aI9422540
aI9749243
aI12293865
aI13563399
aI14386267
aI14419007
aI18312036
aI24213035
aI27924385
aI28601046
aI32262815
aI38492261
aI49028999
aI50299418
aI59377168
aI60225019
aI62861860
aI98583916
aI105211516
aI124491074
aI146831330
aI153172414
asI7287778
(lp194
I823179
aI3022697
aI4338188
aI4338236
aI4456443
aI4649435
asI60225019
(lp195
I823179
aI1475550
aI1723039
aI3367292
aI4250608
aI4403216
aI4793841
aI4870053
aI5126991
aI6564065
aI7102538
aI8422151
aI9006308
aI9337624
aI9422540
aI9749243
aI10822578
aI11656665
aI12293865
aI12821547
aI14419007
aI14480835
aI15440303
aI18006023
aI18312036
aI19364754
aI28601046
aI32262815
aI39033081
aI50299418
aI52179855
aI62861860
aI98583916
aI104102812
aI124491074
aI146831330
aI186064669
aI199517787
asI44891108
(lp196
I823179
aI1787388
aI2724710
aI2749350
aI3272973
aI4246065
aI4403216
aI4793841
aI4870053
aI6279501
aI6564065
aI7102538
aI7937518
aI8357895
aI9006308
aI9337624
aI9937527
aI11656665
aI12100787
aI13563399
aI15860009
aI18006023
aI19364754
aI20347657
aI28601046
aI38492261
aI58819874
aI59377168
aI62861860
aI77303348
aI88620086
aI104102812
aI121891810
aI124491074
aI134506574
aI144190860
aI145136254
aI146831330
aI153172414
aI155667308
aI156104417
aI168323115
aI182308838
aI186064669
aI241090828
asI1794556
(lp197
I663032
aI1000576
aI1627179
aI1867680
aI2528914
aI4458922
aI4902378
aI4940196
aI5161123
aI5171533
aI6797432
aI7295632
aI7659812
aI7676417
aI9566269
aI92094476
aI96542788
asI3427306
(lp198
I823179
aI868976
aI1787388
aI1918327
aI2749350
aI3022697
aI3085883
aI3215452
aI3365230
aI3367292
aI3503953
aI3958533
aI3969942
aI4338188
aI4403216
aI4456443
aI4462792
aI4524732
aI4575649
aI4649435
aI4694550
aI4785467
aI4932215
aI5126991
aI5436168
aI5521236
aI6564065
aI6578008
aI7102538
aI7950737
aI8161055
aI8182109
aI8310364
aI8357895
aI10032063
aI11656665
aI11747688
aI12100787
aI12288223
aI14386267
aI14419007
aI18312036
aI18322878
aI39033081
aI40053469
aI49028999
aI50299418
aI55065384
aI58611990
aI122111395
asI67388399
(lp199
I160173
aI337032
aI867582
aI1576059
aI1628224
aI2709150
aI3945263
aI5740275
aI6337282
aI7210301
aI8357895
aI11493685
aI17645989
aI23416977
aI29114306
aI40976682
aI41130644
aI41853154
aI55483095
aI77303348
aI78068394
aI93848406
aI108219695
aI197540093
asI4250608
(lp200
I741634
aI823179
aI868976
aI1174012
aI1213158
aI1475550
aI1723039
aI1787388
aI2534672
aI2749350
aI3111376
aI3272973
aI3355127
aI3365230
aI3958533
aI4338236
aI4403216
aI4447169
aI4462792
aI4649435
aI4663095
aI4694550
aI4785467
aI4870053
aI4932215
aI5126991
aI5170532
aI5436168
aI6564065
aI7102538
aI7867790
aI7937518
aI8310364
aI8357895
aI8422151
aI9006308
aI9337624
aI9422540
aI9687459
aI10032063
aI10822578
aI11656665
aI11661890
aI11747688
aI11871890
aI12100787
aI12288223
aI12293865
aI14386267
aI18006023
aI18322878
aI34805445
aI35791758
aI49028999
aI58611990
aI59377168
aI60225019
aI68793847
aI122111395
aI124491074
aI153172414
aI164791675
asI43348979
(lp201
I337032
aI642565
aI1257981
aI1576059
aI1628224
aI1963369
aI2530452
aI3211230
aI3272973
aI3533673
aI5725487
aI5740275
aI6337282
aI7210301
aI8898445
aI9757312
aI10843436
aI11045234
aI11493685
aI11829392
aI12073500
aI12103340
aI17645989
aI19138731
aI20204808
aI22097964
aI24960877
aI26231519
aI26844369
aI29114306
aI38165520
aI41853154
aI49406612
aI55483095
aI58819874
aI65029737
aI67160479
aI76705031
aI78068394
aI82409195
aI96517058
aI136112029
aI137074674
aI139365724
aI149072396
aI151924147
aI156146269
aI156400262
aI174912561
aI181562984
aI184072820
aI192019818
aI197540093
aI200702506
asI178848778
(lp202
I3272973
aI4403216
aI6041426
aI8357895
aI8610956
aI11656665
aI12100787
aI20347657
asI4547596
(lp203
I47392333
asI38165520
(lp204
I337032
aI867582
aI1257981
aI1628224
aI2530452
aI3171461
aI3211230
aI3272973
aI3533673
aI5725487
aI5740275
aI6041426
aI6337282
aI7988989
aI8898445
aI9937527
aI10843436
aI11493685
aI11531487
aI11656665
aI12073500
aI12103340
aI12305229
aI13563399
aI17097306
aI17445314
aI17645989
aI19138731
aI20204808
aI20347657
aI22097964
aI24960877
aI25124243
aI26231519
aI26844369
aI29114306
aI32427674
aI38990041
aI40930566
aI41853154
aI43348979
aI49406612
aI50299418
aI55483095
aI65029737
aI67160479
aI76705031
aI77303348
aI96517058
aI98358711
aI108219695
aI137074674
aI139365724
aI146831330
aI149072396
aI156146269
aI156400262
aI181562984
aI184072820
aI187023566
aI192019818
aI197540093
aI200702506
asI7525395
(lp205
I823179
aI2067334
aI2166679
aI2445724
aI2534672
aI2749350
aI2972157
aI3022697
aI3085883
aI3423900
aI3489196
aI4462792
aI4649435
aI4753012
aI5521236
aI6041426
aI7227401
aI7950737
aI11871890
aI12100787
aI36565016
aI58611990
asI19471386
(lp206
sI168942768
(lp207
I1174012
aI2749350
aI3365230
aI4793841
aI18006023
aI38492261
aI49028999
aI62861860
aI88620086
aI104102812
aI141454512
aI144190860
aI155667308
aI168323115
aI186064669
asI1627179
(lp208
I362794
aI663032
aI823179
aI1000576
aI1174012
aI1489338
aI1782672
aI1794556
aI2528914
aI2749350
aI3085883
aI3272973
aI3503953
aI3971116
aI5161123
aI5171533
aI7142997
aI7295632
aI7659812
aI7676417
aI9006308
aI18322878
aI18675812
aI34805445
aI35791758
aI92094476
aI96542788
aI98583916
aI138482951
asI276945965
(lp209
I3691649
aI12134823
aI23403596
aI124919652
aI128324832
aI170978935
aI210127151
asI8715311
(lp210
I5436168
asI174912561
(lp211
I1628224
aI2530452
aI3211230
aI6337282
aI11493685
aI12103340
aI17645989
aI19138731
aI20204808
aI23416977
aI24960877
aI29114306
aI41853154
aI43348979
aI55483095
aI96517058
aI149072396
aI184072820
aI197540093
asI88620086
(lp212
I823179
aI4246065
aI4403216
aI4870053
aI10822578
aI12293865
aI13563399
aI14386267
aI19176414
aI38492261
aI44891108
aI59377168
aI62861860
aI104102812
aI106637969
aI121891810
aI134506574
aI141454512
aI144190860
aI155667308
aI156104417
aI168323115
aI168942768
aI169168450
aI186064669
aI241090828
asI14419007
(lp213
I823179
aI868976
aI2424111
aI2749350
aI3022697
aI3085883
aI3215452
aI3272973
aI3365230
aI3367292
aI3427306
aI3503953
aI3958533
aI3969942
aI4338188
aI4403216
aI4462792
aI4524732
aI4785467
aI4870053
aI4932215
aI5126991
aI7102538
aI7937518
aI8182109
aI8310364
aI8357895
aI9006308
aI9337624
aI9422540
aI9687459
aI9749243
aI9937527
aI10032063
aI12100787
aI12288223
aI12293865
aI12821547
aI13563399
aI14386267
aI15440303
aI16665204
aI18006023
aI18312036
aI19364754
aI20347657
aI24213035
aI27924385
aI28601046
aI32262815
aI38492261
aI49028999
aI50299418
aI55065384
aI60225019
aI62861860
aI85716066
aI87076022
aI98583916
aI105211516
aI122111395
aI124491074
aI153172414
asI8027201
(lp214
I823179
aI2724710
aI2749350
aI3272973
aI3365230
aI3958533
aI4403216
aI4870053
aI4932215
aI5126991
aI5436168
aI5521236
aI7937518
aI8182109
aI8357895
aI8644587
aI9006308
aI9209743
aI9422540
aI9749243
aI10822578
aI12100787
aI12293865
aI12821547
aI13563399
aI14386267
aI18006023
aI18312036
aI19364754
aI20222256
aI20347657
aI38492261
aI50299418
aI55065384
aI58611990
aI59377168
aI61758963
aI68793847
aI77701046
aI85716066
aI122111395
aI140195205
asI149072396
(lp215
I337032
aI867582
aI1628224
aI2039481
aI2530452
aI2709150
aI3171461
aI3211230
aI3272973
aI3533673
aI5740275
aI6337282
aI7210301
aI7988989
aI8357895
aI8898445
aI10843436
aI11045234
aI11493685
aI11531487
aI11829392
aI12073500
aI12103340
aI17445314
aI17645989
aI20204808
aI22097964
aI23416977
aI24960877
aI26231519
aI26844369
aI29114306
aI32427674
aI36620360
aI38165520
aI40976682
aI41130644
aI41853154
aI43348979
aI49406612
aI55483095
aI58819874
aI65029737
aI67160479
aI76705031
aI78068394
aI82409195
aI87442515
aI93848406
aI96517058
aI108219695
aI136112029
aI137074674
aI139365724
aI156146269
aI174912561
aI181224253
aI181562984
aI184072820
aI197540093
aI226440450
asI23403596
(lp216
I3691649
aI4334114
aI15156485
aI29461300
aI52887152
aI94875485
aI109399539
aI124919652
aI276945965
asI87442515
(lp217
I642565
aI867582
aI1257981
aI1576059
aI1628224
aI2530452
aI5740275
aI6337282
aI7988989
aI10843436
aI11045234
aI11493685
aI11829392
aI12073500
aI17645989
aI24960877
aI40976682
aI49406612
aI55483095
aI58819874
aI76705031
aI96517058
aI98358711
aI137074674
aI149072396
aI151924147
aI187023566
asI14386267
(lp218
I362794
aI823179
aI1174012
aI1471861
aI1475550
aI1723039
aI1787388
aI2749350
aI3272973
aI3365230
aI3427306
aI3958533
aI4250608
aI4403216
aI4870053
aI5126991
aI5436168
aI5521236
aI6564065
aI7102538
aI8027201
aI8357895
aI9006308
aI9337624
aI9422540
aI9749243
aI9937527
aI11656665
aI12100787
aI12821547
aI13563399
aI14419007
aI14480835
aI15860009
aI16665204
aI18006023
aI18312036
aI19364754
aI20222256
aI20347657
aI27924385
aI28601046
aI38492261
aI40930566
aI49028999
aI50299418
aI57243836
aI58611990
aI59377168
aI61758963
aI62861860
aI68793847
aI85716066
aI88620086
aI98583916
aI122111395
aI124491074
aI146831330
aI153172414
aI160452457
aI182308838
aI186064669
aI208981271
asI85716066
(lp219
I1723039
aI4403216
aI8027201
aI9209743
aI9937527
aI13563399
aI14386267
aI14419007
aI16665204
aI19176414
aI27924385
aI28601046
aI38492261
aI40930566
aI61758963
aI68793847
aI77701046
aI98583916
aI153172414
aI160452457
aI208981271
asI126264427
(lp220
I1576059
aI4403216
aI9757312
aI11829392
aI78068394
asI1576059
(lp221
I337032
aI642565
aI867582
aI1257981
aI1628224
aI1738161
aI2709150
aI3171461
aI3211230
aI5725487
aI5740275
aI6337282
aI7988989
aI8898445
aI9757312
aI10843436
aI11493685
aI12073500
aI17645989
aI23416977
aI24960877
aI32427674
aI36620360
aI40976682
aI41130644
aI43348979
aI49406612
aI53877646
aI55483095
aI58819874
aI67160479
aI67388399
aI76705031
aI78068394
aI87442515
aI108219695
aI126264427
aI137074674
aI139365724
aI181224253
aI181562984
aI184072820
aI187023566
aI192019818
aI226440450
aI321263733
asI1000576
(lp222
I663032
aI1627179
aI1794556
aI1867680
aI4381327
aI5161123
aI5171533
aI7295632
aI7676417
aI92094476
aI96542788
asI3691649
(lp223
I15156485
aI23403596
aI29573128
aI52887152
aI94875485
aI109399539
aI124919652
aI128324832
aI146010450
aI170978935
aI195536276
aI276945965
asI3171461
(lp224
I224552
aI337032
aI867582
aI1576059
aI1628224
aI1738161
aI2039481
aI2709150
aI3272973
aI3533673
aI3945263
aI4932215
aI5725487
aI5740275
aI6337282
aI7210301
aI8357895
aI8898445
aI10843436
aI11493685
aI11829392
aI12073500
aI12103340
aI17097306
aI17645989
aI19138731
aI20204808
aI23416977
aI24960877
aI26231519
aI26844369
aI29114306
aI32427674
aI36620360
aI38165520
aI41853154
aI49406612
aI55483095
aI58819874
aI67160479
aI76705031
aI77303348
aI78068394
aI93848406
aI94989441
aI96517058
aI98358711
aI108219695
aI139365724
aI149072396
aI181562984
aI184072820
aI192019818
aI197540093
aI226440450
asI4435079
(lp225
I284345679
asI337032
(lp226
I224552
aI642565
aI867582
aI1257981
aI1576059
aI1628224
aI1738161
aI2039481
aI2530452
aI2709150
aI3085883
aI3171461
aI3211230
aI3272973
aI3533673
aI3945263
aI4932215
aI5725487
aI5740275
aI6337282
aI7210301
aI7988989
aI8898445
aI9757312
aI10843436
aI11045234
aI11493685
aI11531487
aI11829392
aI12073500
aI12103340
aI17645989
aI20204808
aI22097964
aI23416977
aI24960877
aI26231519
aI26844369
aI29114306
aI32427674
aI36620360
aI38165520
aI40976682
aI41130644
aI41853154
aI43348979
aI49406612
aI55483095
aI58819874
aI67160479
aI67388399
aI76705031
aI77303348
aI78068394
aI93848406
aI96517058
aI98358711
aI108219695
aI137074674
aI139365724
aI149072396
aI151924147
aI181562984
aI184072820
aI187023566
aI192019818
aI197540093
aI200702506
aI226440450
asI155667308
(lp227
I2749350
aI4793841
aI6564065
aI9937527
aI10822578
aI19176414
aI28601046
aI44891108
aI62861860
aI87076022
aI88620086
aI104102812
aI106637969
aI124491074
aI134506574
aI168942768
aI169168450
aI186064669
aI241090828
asI8610956
(lp228
I44843
aI868976
aI3272973
aI4403216
aI4932215
aI6041426
aI6279501
aI8357895
aI11656665
aI12100787
aI13563399
aI19364754
aI20347657
aI40930566
aI50299418
aI68793847
aI146831330
aI178848778
asI24960877
(lp229
I337032
aI642565
aI867582
aI1257981
aI1576059
aI1628224
aI1738161
aI1963369
aI2530452
aI3171461
aI3211230
aI3272973
aI3533673
aI5725487
aI5740275
aI6337282
aI7210301
aI7988989
aI8898445
aI9757312
aI10843436
aI11045234
aI11493685
aI12073500
aI12103340
aI12305229
aI17445314
aI17645989
aI19138731
aI20204808
aI22097964
aI25124243
aI26231519
aI26844369
aI29114306
aI32427674
aI38165520
aI41853154
aI43348979
aI49406612
aI55483095
aI58819874
aI65029737
aI67160479
aI76705031
aI77303348
aI82409195
aI87442515
aI96517058
aI136112029
aI137074674
aI139365724
aI149072396
aI151924147
aI156146269
aI156400262
aI174912561
aI181562984
aI184072820
aI187023566
aI192019818
aI197540093
aI200702506
asI2530452
(lp230
I224552
aI337032
aI642565
aI867582
aI1257981
aI1628224
aI1738161
aI1963369
aI2039481
aI2709150
aI3085883
aI3211230
aI3533673
aI4447169
aI5725487
aI5740275
aI6337282
aI7988989
aI8898445
aI9757312
aI10843436
aI11045234
aI11493685
aI11829392
aI12073500
aI12305229
aI17645989
aI19138731
aI20204808
aI24960877
aI26231519
aI26844369
aI38165520
aI41853154
aI43348979
aI49406612
aI55483095
aI58819874
aI65029737
aI76705031
aI77303348
aI78068394
aI87442515
aI96517058
aI98358711
aI136112029
aI137074674
aI149072396
aI151924147
aI174912561
aI181562984
aI184072820
aI187023566
aI192019818
aI197540093
aI200702506
asI2298846
(lp231
I44301
aI823179
aI2067334
aI2166679
aI2424111
aI2445724
aI2528914
aI2534672
aI2724710
aI3022697
aI3085883
aI3132711
aI3423900
aI3503953
aI3690728
aI3782943
aI4134323
aI4402065
aI4415603
aI4462792
aI4524732
aI4649435
aI4753012
aI5212420
aI5436168
aI5882133
aI7659812
aI8310364
aI63282622
aI77701046
asI141454512
(lp232
I33476650
aI88620086
aI104102812
aI121891810
aI168942768
aI186064669
aI199864652
aI227137309
asI12100787
(lp233
I44843
aI362794
aI823179
aI868976
aI1213158
aI1787388
aI2528914
aI2574116
aI2724710
aI2749350
aI3272973
aI3365230
aI3427306
aI3503953
aI3958533
aI3969942
aI4250608
aI4403216
aI4649435
aI4793841
aI4870053
aI4932215
aI5126991
aI5436168
aI5521236
aI6041426
aI6279501
aI7102538
aI7525395
aI7867790
aI7937518
aI8027201
aI8357895
aI8610956
aI8644587
aI9209743
aI9422540
aI9687459
aI9937527
aI10032063
aI11656665
aI11747688
aI11871890
aI12288223
aI12293865
aI13563399
aI14195123
aI14386267
aI14419007
aI15440303
aI16665204
aI18006023
aI18312036
aI18322878
aI19364754
aI20347657
aI28601046
aI38492261
aI40930566
aI44891108
aI49028999
aI50299418
aI55065384
aI58611990
aI59377168
aI61758963
aI62861860
aI77303348
aI77701046
aI105211516
aI122111395
aI124491074
aI134506574
aI146831330
aI150589497
aI166942832
aI178848778
aI182308838
aI192288556
asI87076022
(lp234
I823179
aI3272973
aI8357895
aI11656665
aI12293865
aI13563399
aI14419007
aI61758963
aI62861860
aI68793847
aI134506574
aI146831330
aI155667308
aI168323115
aI182308838
aI186064669
aI241090828
asI26844369
(lp235
I337032
aI642565
aI1257981
aI1628224
aI2039481
aI2530452
aI3171461
aI3211230
aI3533673
aI5740275
aI6041426
aI6337282
aI7210301
aI7988989
aI8357895
aI8898445
aI9757312
aI10843436
aI11493685
aI12073500
aI12103340
aI17645989
aI20204808
aI22097964
aI23416977
aI24960877
aI29114306
aI38165520
aI41853154
aI43348979
aI55483095
aI58819874
aI67160479
aI76705031
aI77303348
aI98358711
aI137074674
aI139365724
aI149072396
aI156146269
aI181562984
aI192019818
asI2178259
(lp236
I44301
aI362794
aI741634
aI868976
aI1723039
aI1782672
aI1812082
aI2166679
aI2424111
aI2551939
aI3111376
aI3423900
aI3971116
aI6564065
aI11661890
aI18322878
asI11531487
(lp237
I337032
aI642565
aI867582
aI1628224
aI1738161
aI2039481
aI3272973
aI3533673
aI3945263
aI5725487
aI5740275
aI6337282
aI7988989
aI8357895
aI8898445
aI10843436
aI11493685
aI12073500
aI17445314
aI17645989
aI19154846
aI20204808
aI23416977
aI26231519
aI29114306
aI38165520
aI40976682
aI41130644
aI41853154
aI49406612
aI55483095
aI58819874
aI67160479
aI76705031
aI78068394
aI93848406
aI96517058
aI98358711
aI108219695
aI135823766
aI136112029
aI137074674
aI139365724
aI149072396
aI151924147
aI181562984
aI187023566
aI192019818
aI197540093
asI9006308
(lp238
I12662
aI61798
aI65324
aI362794
aI741634
aI823179
aI868976
aI1174012
aI1213158
aI1471861
aI1475550
aI1627179
aI1688214
aI1782672
aI1787388
aI1918327
aI2528914
aI2724710
aI2749350
aI3085883
aI3215452
aI3272973
aI3365230
aI3503953
aI3958533
aI3969942
aI4250608
aI4403216
aI4447169
aI4462792
aI4602036
aI4649435
aI4663095
aI4694550
aI4785467
aI4870053
aI4932215
aI5126991
aI5436168
aI6041426
aI6564065
aI7102538
aI7867790
aI7937518
aI8027201
aI8161055
aI8357895
aI8422151
aI9337624
aI9422540
aI9937527
aI10032063
aI10822578
aI11656665
aI11747688
aI11871890
aI12288223
aI12293865
aI13563399
aI14386267
aI14419007
aI14480835
aI18006023
aI19364754
aI27924385
aI28601046
aI32262815
aI34805445
aI36565016
aI38492261
aI39033081
aI40930566
aI44891108
aI49028999
aI50299418
aI57243836
aI58611990
aI59377168
aI60225019
aI61758963
aI62861860
aI85677663
aI104102812
aI106637969
aI124491074
aI134506574
aI138482951
aI153172414
aI156104417
aI160452457
aI164791675
aI166942832
aI182308838
aI186064669
asI98147557
(lp239
I104102812
aI144190860
asI40976682
(lp240
I160173
aI337032
aI867582
aI1576059
aI1628224
aI1738161
aI3945263
aI5740275
aI6337282
aI8357895
aI8898445
aI11531487
aI17645989
aI23416977
aI26231519
aI26707251
aI32427674
aI36620360
aI41130644
aI55483095
aI67160479
aI67388399
aI76705031
aI77303348
aI78068394
aI87442515
aI96517058
aI139365724
aI149072396
aI156400262
aI181224253
aI197540093
aI226440450
asI867582
(lp241
I224552
aI337032
aI642565
aI1257981
aI1576059
aI1628224
aI1738161
aI2039481
aI2530452
aI3171461
aI3272973
aI3533673
aI3945263
aI5142174
aI5725487
aI5740275
aI6337282
aI7210301
aI7988989
aI8357895
aI8898445
aI10843436
aI11493685
aI11531487
aI12073500
aI17645989
aI20204808
aI22097964
aI23416977
aI24960877
aI26231519
aI29114306
aI38165520
aI40976682
aI41130644
aI41853154
aI49406612
aI55483095
aI58819874
aI65029737
aI67388399
aI76705031
aI77303348
aI78068394
aI87442515
aI93848406
aI94989441
aI96517058
aI108219695
aI136112029
aI137074674
aI139365724
aI149072396
aI151924147
aI181224253
aI181562984
aI184072820
aI192019818
aI197540093
aI226440450
aI321263733
asI226440450
(lp242
I160173
aI337032
aI867582
aI1576059
aI2709150
aI3171461
aI5740275
aI6337282
aI8357895
aI8898445
aI11493685
aI17645989
aI22097964
aI23416977
aI29114306
aI36620360
aI40976682
aI41130644
aI58819874
aI76705031
aI78068394
aI82409195
aI139365724
aI149072396
aI156400262
asI15156485
(lp243
I3691649
aI23403596
aI52887152
aI124919652
aI151765137
asI40930566
(lp244
I823179
aI1723039
aI2574116
aI2749350
aI3272973
aI4403216
aI4793841
aI4932215
aI6279501
aI6564065
aI8357895
aI8610956
aI9006308
aI9337624
aI9422540
aI9937527
aI10843436
aI11656665
aI12100787
aI12293865
aI13563399
aI14386267
aI16665204
aI18006023
aI19176414
aI19364754
aI20347657
aI27924385
aI28601046
aI38165520
aI38492261
aI50299418
aI57243836
aI59377168
aI61758963
aI62861860
aI68793847
aI77303348
aI85716066
aI124491074
aI134506574
aI146831330
aI169168450
aI186064669
asI76705031
(lp245
I224552
aI337032
aI642565
aI867582
aI1257981
aI1576059
aI1628224
aI1738161
aI1918327
aI2039481
aI2530452
aI2709150
aI2768474
aI3171461
aI3211230
aI3272973
aI3533673
aI5725487
aI5740275
aI6337282
aI7210301
aI7988989
aI8357895
aI8898445
aI9422540
aI9757312
aI10843436
aI11045234
aI11493685
aI11531487
aI11829392
aI12073500
aI12103340
aI12305229
aI17645989
aI19364754
aI20204808
aI22097964
aI24960877
aI25124243
aI26231519
aI26844369
aI29114306
aI32427674
aI36620360
aI38165520
aI38990041
aI40976682
aI41130644
aI41853154
aI43348979
aI49406612
aI50299418
aI55483095
aI58819874
aI65029737
aI67160479
aI77303348
aI82409195
aI87442515
aI96517058
aI98358711
aI108219695
aI137074674
aI139365724
aI149072396
aI151924147
aI156146269
aI156400262
aI181562984
aI184072820
aI187023566
aI192019818
aI197540093
aI200702506
aI226440450
asI1193224
(lp246
I1481193
aI3205636
asI44301
(lp247
I44843
aI61798
aI65324
aI741634
aI823179
aI868976
aI1174012
aI1213158
aI1471861
aI1787388
aI1812082
aI2067334
aI2178259
aI2298846
aI2424111
aI2528914
aI2534672
aI2551939
aI2724710
aI2825414
aI3085883
aI3111376
aI3132711
aI3355127
aI3423900
aI3503953
aI4134323
aI4403216
aI4649435
aI4694550
aI4753012
aI4785467
aI5212420
aI5436168
aI6564065
aI7142997
aI7950737
aI10032063
aI11747688
aI11871890
aI12663454
aI18322878
aI50509720
aI124491074
asI2534672
(lp248
I44301
aI823179
aI1688214
aI2067334
aI2166679
aI2298846
aI2424111
aI2445724
aI3022697
aI3423900
aI3489196
aI4134323
aI4250608
aI4402065
aI4524732
aI4649435
aI4694550
aI4785467
aI4932215
aI5436168
aI5882133
aI7227401
aI7525395
aI7950737
aI8310364
aI10822578
aI11871890
aI12663454
asI5659921
(lp249
I3272973
aI9937527
aI21142205
aI51350895
aI70957191
aI298774704
asI208981271
(lp250
I823179
aI1723039
aI3355127
aI9937527
aI13563399
aI14386267
aI16665204
aI19176414
aI19364754
aI27924385
aI28601046
aI38492261
aI50299418
aI57243836
aI61758963
aI68793847
aI85716066
asI703770
(lp251
I65324
aI1213158
aI1782672
aI4246065
asI58819874
(lp252
I337032
aI642565
aI867582
aI1576059
aI1738161
aI1963369
aI2530452
aI2709150
aI2749350
aI3085883
aI3171461
aI3272973
aI3533673
aI4403216
aI4870053
aI4932215
aI5725487
aI5740275
aI6041426
aI6279501
aI6337282
aI7210301
aI8357895
aI8898445
aI9757312
aI9937527
aI10843436
aI11045234
aI11493685
aI11531487
aI11656665
aI11829392
aI12073500
aI12293865
aI13563399
aI17645989
aI18006023
aI19176414
aI19364754
aI20204808
aI20347657
aI23416977
aI24960877
aI26231519
aI26844369
aI28601046
aI29114306
aI41130644
aI43348979
aI44891108
aI49406612
aI50299418
aI53877646
aI55483095
aI61758963
aI67160479
aI68793847
aI76705031
aI77303348
aI78068394
aI87442515
aI96517058
aI104102812
aI108219695
aI137074674
aI139365724
aI146831330
aI149072396
aI151924147
aI166942832
aI192019818
aI197540093
aI226440450
aI241090828
asI3132711
(lp253
I44301
aI823179
aI2067334
aI2298846
aI2424111
aI2528914
aI2724710
aI3423900
aI3503953
aI4524732
aI5882133
aI10624507
aI11661890
aI12663454
aI63282622
asI224552
(lp254
I337032
aI642565
aI867582
aI1257981
aI1628224
aI1738161
aI1963369
aI2530452
aI2709150
aI3171461
aI3355127
aI3533673
aI3945263
aI5725487
aI5740275
aI6337282
aI7210301
aI10843436
aI17645989
aI49406612
aI55483095
aI76705031
aI77303348
aI137074674
aI151924147
aI192019818
aI200702506
asI10843436
(lp255
I224552
aI337032
aI642565
aI867582
aI1257981
aI1576059
aI1628224
aI1738161
aI1963369
aI2530452
aI3171461
aI3211230
aI3533673
aI3945263
aI4932215
aI5725487
aI5740275
aI6337282
aI7210301
aI7988989
aI8357895
aI8898445
aI9757312
aI11045234
aI11493685
aI11531487
aI11829392
aI12073500
aI12103340
aI12305229
aI13563399
aI17645989
aI19138731
aI20204808
aI22097964
aI23416977
aI24960877
aI25124243
aI26844369
aI29114306
aI38165520
aI40930566
aI43348979
aI49406612
aI55483095
aI58819874
aI67160479
aI76705031
aI77303348
aI82409195
aI87442515
aI96517058
aI98358711
aI108219695
aI137074674
aI139365724
aI149072396
aI156146269
aI156400262
aI181562984
aI187023566
aI192019818
aI197540093
aI200702506
asI5725487
(lp256
I224552
aI337032
aI642565
aI867582
aI1576059
aI1628224
aI1738161
aI2039481
aI2530452
aI2709150
aI3171461
aI3533673
aI3945263
aI5740275
aI6337282
aI7210301
aI8898445
aI9757312
aI10843436
aI11045234
aI11493685
aI11531487
aI11829392
aI12073500
aI12305229
aI17645989
aI24960877
aI29114306
aI38165520
aI41130644
aI43348979
aI49406612
aI55483095
aI58819874
aI67160479
aI76705031
aI77303348
aI93848406
aI96517058
aI98358711
aI108219695
aI137074674
aI139365724
aI151924147
aI181562984
aI187023566
aI192019818
aI200702506
asI26707251
(lp257
I8898445
aI22097964
aI40976682
aI41130644
aI55483095
aI65029737
aI67160479
aI93848406
aI156400262
aI187023566
asI4785467
(lp258
I44301
aI868976
aI1174012
aI1475550
aI2534672
aI2749350
aI3111376
aI3215452
aI3427306
aI3503953
aI3958533
aI3969942
aI4250608
aI4403216
aI4456443
aI4524732
aI4663095
aI5126991
aI6041426
aI6564065
aI8310364
aI9006308
aI10032063
aI11747688
aI14419007
aI58611990
aI77701046
asI7210301
(lp259
I224552
aI337032
aI642565
aI867582
aI1738161
aI2709150
aI3171461
aI3211230
aI3945263
aI5725487
aI5740275
aI6337282
aI8898445
aI10843436
aI11493685
aI11829392
aI12073500
aI12305229
aI17645989
aI18006023
aI20204808
aI23416977
aI24960877
aI26231519
aI26844369
aI29114306
aI41130644
aI41853154
aI43348979
aI49406612
aI55483095
aI58819874
aI67160479
aI67388399
aI76705031
aI78068394
aI82409195
aI96517058
aI108219695
aI137074674
aI139365724
aI149072396
aI151924147
aI181562984
aI192019818
aI197540093
aI200702506
asI9535
(lp260
I823179
asI124491074
(lp261
I12662
aI44301
aI44843
aI65324
aI362794
aI741634
aI823179
aI868976
aI1213158
aI1471861
aI1782672
aI1787388
aI2424111
aI2574116
aI2749350
aI3085883
aI3272973
aI3365230
aI3367292
aI3503953
aI3958533
aI3969942
aI4246065
aI4250608
aI4403216
aI4793841
aI4870053
aI5126991
aI5436168
aI6041426
aI6564065
aI7102538
aI7937518
aI8357895
aI8422151
aI9006308
aI9337624
aI9422540
aI9749243
aI9937527
aI10032063
aI11656665
aI11747688
aI11871890
aI12100787
aI12288223
aI12293865
aI12821547
aI13563399
aI14195123
aI14386267
aI14419007
aI15440303
aI15860009
aI18006023
aI18312036
aI18322878
aI19364754
aI20347657
aI28601046
aI32262815
aI38492261
aI40930566
aI44891108
aI49028999
aI50299418
aI57243836
aI58611990
aI59377168
aI60225019
aI61758963
aI62861860
aI68793847
aI85677663
aI98583916
aI104102812
aI105211516
aI106637969
aI122111395
aI134506574
aI138482951
aI146831330
aI155667308
aI160452457
aI169168450
aI182308838
aI186064669
asI1668431
(lp262
I4793841
asI53877646
(lp263
I1576059
aI2709150
aI8898445
aI23416977
aI41130644
aI55483095
aI58819874
aI67160479
aI78068394
aI108219695
aI139365724
asI139365724
(lp264
I337032
aI867582
aI1257981
aI1576059
aI1628224
aI1738161
aI2039481
aI2709150
aI3171461
aI3211230
aI3272973
aI3533673
aI5725487
aI5740275
aI7210301
aI7988989
aI8357895
aI8898445
aI10843436
aI11045234
aI11493685
aI11531487
aI12073500
aI12103340
aI17445314
aI17645989
aI19154846
aI19364754
aI20204808
aI22097964
aI24960877
aI26231519
aI26844369
aI29114306
aI36620360
aI38165520
aI40976682
aI43348979
aI50299418
aI53877646
aI55483095
aI58819874
aI67160479
aI76705031
aI82409195
aI96517058
aI98358711
aI109391951
aI149072396
aI181562984
aI192019818
aI197540093
aI226440450
aI321263733
asI5170532
(lp265
I823179
aI2166679
aI2445724
aI2724710
aI3022697
aI4250608
aI4415603
aI4649435
aI4753012
aI5265943
aI5436168
aI7227401
aI50509720
aI77701046
asI1963369
(lp266
I224552
aI642565
aI1738161
aI2530452
aI6337282
aI7988989
aI10843436
aI11829392
aI17645989
aI24960877
aI43348979
aI55483095
aI58819874
aI65029737
aI98358711
aI137074674
aI151924147
aI156400262
asI192019818
(lp267
I224552
aI337032
aI642565
aI867582
aI1257981
aI1576059
aI1628224
aI1738161
aI2039481
aI2530452
aI2709150
aI3171461
aI3211230
aI3272973
aI3533673
aI3945263
aI5725487
aI5740275
aI6337282
aI7210301
aI7988989
aI8357895
aI8898445
aI9757312
aI10843436
aI11045234
aI11493685
aI11531487
aI11829392
aI12073500
aI12103340
aI12305229
aI17645989
aI22097964
aI24960877
aI26844369
aI29114306
aI38165520
aI38990041
aI43348979
aI49406612
aI55483095
aI58819874
aI65029737
aI76705031
aI77303348
aI137074674
aI139365724
aI151924147
aI156400262
aI181562984
aI187023566
aI200702506
asI98583916
(lp268
I823179
aI868976
aI1627179
aI1723039
aI2749350
aI3272973
aI4870053
aI9337624
aI9422540
aI9749243
aI12293865
aI12821547
aI14386267
aI14419007
aI15440303
aI18312036
aI19176414
aI24213035
aI32262815
aI58611990
aI60225019
aI62861860
aI85716066
aI105211516
aI124491074
aI153172414
asI51350895
(lp269
I3272973
aI5659921
aI21142205
aI122111395
aI294842534
asI1471861
(lp270
I12662
aI44301
aI44843
aI61798
aI65324
aI362794
aI741634
aI823179
aI868976
aI1213158
aI1782672
aI1787388
aI1824853
aI3111376
aI3503953
aI4403216
aI5436168
aI9006308
aI9422540
aI10032063
aI12288223
aI14386267
aI16665204
aI18322878
aI62861860
aI104102812
aI124491074
asI1918327
(lp271
I823179
aI3272973
aI3427306
aI6564065
aI9006308
aI76705031
aI104102812
asI164791675
(lp272
I362794
aI823179
aI1213158
aI1475550
aI1723039
aI4250608
aI6564065
aI8422151
aI9006308
aI9337624
aI13563399
aI138482951
asI94213506
(lp273
I9937527
asI140195205
(lp274
I823179
aI4870053
aI7102538
aI8027201
aI9209743
aI9749243
aI12293865
aI18006023
aI19364754
aI50299418
asI144190860
(lp275
I11656665
aI18006023
aI44891108
aI61758963
aI62861860
aI68793847
aI88620086
aI98147557
aI104102812
aI134506574
aI168942768
aI169168450
aI186064669
asI7867790
(lp276
I823179
aI868976
aI1174012
aI1475550
aI1688214
aI2724710
aI2749350
aI3272973
aI3365230
aI3969942
aI4250608
aI4403216
aI4462792
aI4649435
aI4726252
aI4932215
aI5126991
aI6041426
aI6564065
aI7227401
aI8310364
aI8357895
aI9006308
aI9337624
aI11656665
aI11747688
aI12100787
aI36565016
aI134506574
asI19600783
(lp277
I868976
aI1213158
aI4246065
aI4338236
aI4403216
aI9422540
aI28590514
aI28601046
aI34805445
aI104102812
asI25124243
(lp278
I642565
aI1628224
aI3211230
aI3533673
aI10843436
aI11045234
aI17645989
aI24960877
aI32427674
aI38165520
aI38990041
aI49406612
aI55483095
aI65029737
aI76705031
aI156146269
aI181562984
aI187023566
asI195536276
(lp279
I3691649
aI12134823
aI94875485
asI122111395
(lp280
I362794
aI823179
aI868976
aI1174012
aI2574116
aI2724710
aI2749350
aI3085883
aI3365230
aI3427306
aI3958533
aI4250608
aI4524732
aI4575649
aI4649435
aI4870053
aI4932215
aI5126991
aI5740275
aI6564065
aI6578008
aI7102538
aI7937518
aI8027201
aI8182109
aI8357895
aI9337624
aI9749243
aI10032063
aI11656665
aI12100787
aI12288223
aI12293865
aI13563399
aI14195123
aI14386267
aI14419007
aI18006023
aI19364754
aI20347657
aI21142205
aI28601046
aI36565016
aI38255473
aI40053469
aI49028999
aI50299418
aI51350895
aI55065384
aI58611990
aI62861860
aI85677663
aI124491074
aI160452457
aI192288556
asI3489196
(lp281
I12662
aI2067334
aI2445724
aI2534672
aI3022697
aI3690728
aI7525395
asI1738161
(lp282
I224552
aI337032
aI642565
aI867582
aI1447491
aI1576059
aI1628224
aI1963369
aI2039481
aI2530452
aI2709150
aI3171461
aI3272973
aI3533673
aI3945263
aI5142174
aI5725487
aI5740275
aI6337282
aI7210301
aI8898445
aI9757312
aI10843436
aI11045234
aI11493685
aI11531487
aI12073500
aI17645989
aI20204808
aI22097964
aI24960877
aI26231519
aI29114306
aI29122171
aI32427674
aI40976682
aI41130644
aI41853154
aI49406612
aI55483095
aI58819874
aI76705031
aI77303348
aI78068394
aI96517058
aI108219695
aI139365724
aI151924147
aI184072820
aI187023566
aI192019818
aI197540093
asI4134323
(lp283
I44301
aI823179
aI2166679
aI2298846
aI2445724
aI2528914
aI2534672
aI3022697
aI3423900
aI3503953
aI3690728
aI4403216
aI4456443
aI4649435
aI5882133
aI7142997
aI7227401
aI7950737
aI8310364
aI154823176
asI2758069
(lp284
I4726252
asI98358711
(lp285
I337032
aI471871
aI642565
aI1257981
aI1963369
aI2039481
aI2530452
aI3171461
aI5725487
aI5740275
aI7988989
aI8898445
aI10843436
aI11493685
aI11531487
aI11829392
aI12073500
aI12103340
aI17645989
aI20204808
aI26844369
aI38165520
aI41853154
aI49406612
aI55483095
aI76705031
aI87442515
aI96517058
aI108219695
aI137074674
aI139365724
aI181562984
asI18322878
(lp286
I22315
aI44301
aI44843
aI65324
aI362794
aI741634
aI868976
aI1213158
aI1471861
aI1489338
aI1627179
aI1787388
aI1812082
aI2178259
aI2424111
aI2528914
aI2551939
aI2724710
aI2749350
aI3085883
aI3111376
aI3215452
aI3272973
aI3355127
aI3365230
aI3367292
aI3427306
aI3503953
aI3958533
aI3969942
aI3971116
aI4246065
aI4250608
aI4447169
aI4649435
aI4694550
aI4753012
aI4793841
aI4870053
aI4932215
aI5126991
aI5436168
aI6564065
aI7100223
aI7102538
aI7950737
aI8161055
aI8357895
aI9303982
aI9337624
aI10032063
aI11656665
aI11661890
aI11747688
aI11871890
aI12100787
aI12288223
aI12293865
aI13563399
aI18006023
aI18312036
aI19176414
aI19364754
aI20347657
aI28601046
aI34805445
aI35791758
aI49028999
aI58611990
aI62861860
aI105211516
aI124491074
aI134506574
asI14480835
(lp287
I823179
aI1475550
aI4246065
aI4403216
aI5881432
aI6564065
aI9006308
aI12293865
aI14386267
aI15860009
aI19364754
aI28601046
aI57243836
aI60225019
aI62861860
aI104102812
aI121891810
aI153172414
aI154545004
aI182308838
aI186064669
aI199517787
asI168721873
(lp288
I184414101
asI11656665
(lp289
I61798
aI741634
aI823179
aI868976
aI1213158
aI1475550
aI1787388
aI2528914
aI2574116
aI2724710
aI2749350
aI2955687
aI3085883
aI3111376
aI3215452
aI3272973
aI3355127
aI3365230
aI3427306
aI3503953
aI3958533
aI3969942
aI4246065
aI4250608
aI4338236
aI4403216
aI4462792
aI4649435
aI4663095
aI4694550
aI4793841
aI4870053
aI4932215
aI5126991
aI5207688
aI5436168
aI5521236
aI6041426
aI6279501
aI6564065
aI6578008
aI7102538
aI7867790
aI7937518
aI7950737
aI8161055
aI8182109
aI8310364
aI8357895
aI8610956
aI9006308
aI9209743
aI9337624
aI9422540
aI9749243
aI9937527
aI10032063
aI11747688
aI11871890
aI12100787
aI12288223
aI12293865
aI13563399
aI14386267
aI15440303
aI17097306
aI18006023
aI18312036
aI18322878
aI19176414
aI19364754
aI20222256
aI20347657
aI28601046
aI36565016
aI38165520
aI38492261
aI39033081
aI40053469
aI40930566
aI44891108
aI49028999
aI50299418
aI58611990
aI58819874
aI59377168
aI60225019
aI61758963
aI62861860
aI68793847
aI77303348
aI85677663
aI87076022
aI104102812
aI105211516
aI122111395
aI124491074
aI134506574
aI138482951
aI144190860
aI146831330
aI166942832
aI169168450
aI178848778
aI182308838
aI186064669
asI908771
(lp290
I65324
aI868976
aI3272973
aI216093294
asI20461028
(lp291
I1385997
aI2972157
aI3340222
aI5358450
asI4902378
(lp292
I1794556
aI4940196
aI7659812
aI7676417
aI9566269
asI4726252
(lp293
I2758069
aI3272973
aI5142174
aI5552239
aI5881432
aI7867790
aI8357895
asI7937518
(lp294
I362794
aI823179
aI1213158
aI1723039
aI2724710
aI3365230
aI3958533
aI4250608
aI4403216
aI4649435
aI4793841
aI4870053
aI5126991
aI5521236
aI7102538
aI8027201
aI8357895
aI9006308
aI9209743
aI9749243
aI9937527
aI10822578
aI11656665
aI12100787
aI12293865
aI12821547
aI13563399
aI14419007
aI15440303
aI16665204
aI19364754
aI20347657
aI32262815
aI44891108
aI50299418
aI62861860
aI122111395
aI124491074
aI146831330
aI153172414
aI166942832
asI4793841
(lp295
I65324
aI823179
aI1213158
aI1668431
aI1787388
aI2724710
aI2749350
aI3365230
aI4403216
aI4870053
aI5126991
aI7102538
aI7937518
aI8357895
aI9337624
aI9937527
aI11656665
aI12100787
aI12288223
aI12821547
aI13563399
aI18006023
aI18322878
aI19364754
aI28601046
aI32262815
aI40930566
aI44891108
aI60225019
aI62861860
aI68793847
aI106637969
aI124491074
aI155667308
aI156104417
aI166942832
aI168942768
aI186064669
aI192288556
asI109399539
(lp296
I3691649
aI23403596
aI29461300
aI94875485
aI124919652
aI128324832
aI151765137
aI170978935
aI184414101
aI191512920
aI210127151
aI238890085
asI68793847
(lp297
I823179
aI1475550
aI1723039
aI1787388
aI2749350
aI3272973
aI3365230
aI4246065
aI4250608
aI4403216
aI4793841
aI4870053
aI4932215
aI5126991
aI6041426
aI6279501
aI6564065
aI7102538
aI8027201
aI8357895
aI8610956
aI9337624
aI9422540
aI9937527
aI11656665
aI12288223
aI12293865
aI13563399
aI14386267
aI16665204
aI18006023
aI19176414
aI19364754
aI20347657
aI24213035
aI27924385
aI28601046
aI38492261
aI40930566
aI50299418
aI57243836
aI58819874
aI59377168
aI61758963
aI62861860
aI77303348
aI85677663
aI85716066
aI87076022
aI104102812
aI106637969
aI124491074
aI134506574
aI144190860
aI146831330
aI153172414
aI156104417
aI166942832
aI169168450
aI186064669
aI208981271
asI663032
(lp298
I1000576
aI1627179
aI1794556
aI1867680
aI2528914
aI2876356
aI4458922
aI5161123
aI5171533
aI7295632
aI7659812
aI7676417
aI9566269
aI92094476
aI96542788
asI10624507
(lp299
I823179
aI2724710
aI3132711
aI4462792
aI4932215
aI7227401
aI12663454
asI1787388
(lp300
I12662
aI44301
aI44843
aI61798
aI65324
aI362794
aI741634
aI823179
aI868976
aI1213158
aI1471861
aI1489338
aI1782672
aI2424111
aI2528914
aI2551939
aI2724710
aI2749350
aI3111376
aI3215452
aI3272973
aI3355127
aI3365230
aI3427306
aI3503953
aI3969942
aI4250608
aI4403216
aI4456443
aI4462792
aI4649435
aI4694550
aI4753012
aI4793841
aI4870053
aI4932215
aI5126991
aI5436168
aI6564065
aI6578008
aI7102538
aI8357895
aI8422151
aI9006308
aI9337624
aI9422540
aI10032063
aI11656665
aI11661890
aI11747688
aI11871890
aI12100787
aI12288223
aI13563399
aI14386267
aI18006023
aI18322878
aI19176414
aI19364754
aI28601046
aI38492261
aI40053469
aI44891108
aI50509720
aI58611990
aI61758963
aI62861860
aI68793847
aI124491074
aI134506574
aI169168450
asI642565
(lp301
I224552
aI337032
aI867582
aI1257981
aI1576059
aI1628224
aI1738161
aI1963369
aI2039481
aI2530452
aI3211230
aI5725487
aI5740275
aI6337282
aI7210301
aI7988989
aI8898445
aI9757312
aI10843436
aI11045234
aI11493685
aI11531487
aI11829392
aI12073500
aI12103340
aI12305229
aI17645989
aI19138731
aI20204808
aI24960877
aI25124243
aI26231519
aI26844369
aI29114306
aI38990041
aI41130644
aI41853154
aI43348979
aI49406612
aI55483095
aI58819874
aI65029737
aI67160479
aI76705031
aI78068394
aI87442515
aI96517058
aI98358711
aI136112029
aI137074674
aI151924147
aI156146269
aI156400262
aI181562984
aI184072820
aI187023566
aI192019818
aI197540093
asI13563399
(lp302
I362794
aI823179
aI868976
aI1213158
aI1475550
aI1723039
aI1787388
aI2724710
aI2749350
aI3272973
aI3365230
aI3958533
aI4246065
aI4403216
aI4793841
aI4870053
aI4932215
aI5126991
aI5436168
aI5521236
aI6041426
aI6279501
aI6564065
aI7102538
aI7937518
aI8027201
aI8357895
aI8610956
aI9006308
aI9209743
aI9337624
aI9422540
aI9937527
aI10822578
aI10843436
aI11656665
aI12100787
aI12288223
aI12293865
aI12821547
aI14195123
aI14386267
aI14419007
aI15440303
aI16665204
aI18006023
aI18312036
aI18322878
aI19176414
aI19364754
aI20347657
aI24213035
aI27924385
aI28601046
aI32262815
aI38165520
aI38492261
aI40930566
aI44891108
aI49028999
aI50299418
aI57243836
aI58819874
aI59377168
aI61758963
aI62861860
aI68793847
aI77303348
aI85716066
aI87076022
aI88620086
aI104102812
aI122111395
aI124491074
aI134506574
aI146831330
aI153172414
aI156104417
aI164791675
aI169168450
aI182308838
aI186064669
aI208981271
aI241090828
asI1385997
(lp303
I471871
aI1688214
aI2972157
aI3340222
aI4338188
aI5212420
aI5358450
aI20461028
asI59377168
(lp304
I823179
aI1475550
aI1723039
aI2445724
aI3272973
aI3365230
aI4250608
aI4870053
aI5521236
aI6564065
aI8027201
aI8182109
aI9006308
aI9749243
aI11656665
aI12100787
aI12821547
aI13563399
aI14386267
aI16665204
aI18006023
aI20347657
aI27924385
aI28601046
aI38492261
aI40930566
aI44891108
aI49028999
aI50299418
aI57243836
aI61758963
aI68793847
aI88620086
aI104102812
aI106637969
aI124491074
aI145136254
aI153172414
aI169168450
aI182308838
aI186064669
asI24213035
(lp305
I823179
aI3958533
aI9749243
aI12293865
aI12821547
aI13563399
aI14419007
aI19364754
aI20347657
aI28601046
aI39033081
aI68793847
aI98583916
aI160452457
asI20204808
(lp306
I337032
aI642565
aI867582
aI1257981
aI1628224
aI1738161
aI2039481
aI2530452
aI3171461
aI3211230
aI3272973
aI3533673
aI5740275
aI6337282
aI7210301
aI7988989
aI8357895
aI8898445
aI10843436
aI11045234
aI11493685
aI11531487
aI11829392
aI12073500
aI12103340
aI17445314
aI17645989
aI19138731
aI22097964
aI24960877
aI26231519
aI26844369
aI29114306
aI32427674
aI36620360
aI38165520
aI41853154
aI43348979
aI49406612
aI55483095
aI58819874
aI65029737
aI67160479
aI76705031
aI77303348
aI82409195
aI93848406
aI96517058
aI98358711
aI108219695
aI136112029
aI137074674
aI139365724
aI149072396
aI151924147
aI156146269
aI174912561
aI181562984
aI184072820
aI197540093
asI77303348
(lp307
I44843
aI224552
aI337032
aI867582
aI868976
aI1213158
aI1628224
aI1738161
aI2039481
aI2530452
aI2709150
aI2749350
aI3085883
aI3171461
aI3211230
aI3272973
aI3365230
aI3533673
aI3945263
aI4403216
aI4870053
aI4932215
aI5126991
aI5142174
aI5725487
aI5740275
aI6041426
aI6279501
aI6337282
aI8357895
aI9937527
aI10843436
aI11045234
aI11493685
aI11656665
aI11829392
aI12100787
aI12293865
aI13563399
aI15440303
aI17097306
aI17645989
aI18006023
aI19364754
aI20204808
aI20347657
aI24960877
aI26844369
aI29114306
aI38165520
aI40930566
aI40976682
aI41130644
aI44891108
aI50299418
aI55483095
aI58819874
aI61758963
aI67388399
aI68793847
aI76705031
aI78068394
aI93848406
aI96517058
aI104102812
aI106637969
aI108219695
aI134506574
aI146831330
aI169168450
aI184072820
aI192019818
aI200702506
aI241090828
asI3085883
(lp308
I12662
aI44301
aI337032
aI741634
aI823179
aI868976
aI1475550
aI1627179
aI1688214
aI2067334
aI2298846
aI2424111
aI2528914
aI2530452
aI2709150
aI2749350
aI2955687
aI3022697
aI3047885
aI3211230
aI3215452
aI3365230
aI3367292
aI3427306
aI3503953
aI3782943
aI3958533
aI3969942
aI4338188
aI4338236
aI4402065
aI4403216
aI4447169
aI4456443
aI4462792
aI4524732
aI4649435
aI4694550
aI4932215
aI5212420
aI5358450
aI5521236
aI5740275
aI6041426
aI6337282
aI6514424
aI6564065
aI6578008
aI7102538
aI7227401
aI7525395
aI7950737
aI8310364
aI8357895
aI9006308
aI9303982
aI10032063
aI11656665
aI11661890
aI11747688
aI14419007
aI17645989
aI18006023
aI18322878
aI18675812
aI39033081
aI40053469
aI55483095
aI58819874
aI62861860
aI77303348
aI77701046
aI122111395
aI124491074
aI134506574
aI138482951
aI151924147
aI154823176
asI169168450
(lp309
I823179
aI1475550
aI1723039
aI1787388
aI2749350
aI3272973
aI3365230
aI4246065
aI4932215
aI6564065
aI8357895
aI11656665
aI13563399
aI16665204
aI19364754
aI20347657
aI27924385
aI28601046
aI32262815
aI38492261
aI40930566
aI57243836
aI59377168
aI62861860
aI68793847
aI77303348
aI88620086
aI104102812
aI124491074
aI134506574
aI144190860
aI150589497
aI155667308
aI160452457
aI186064669
asI1447491
(lp310
I1738161
aI3945263
aI8898445
aI55483095
aI78068394
asI68003403
(lp311
I151765137
asI47392333
(lp312
I4547596
aI18006023
asI7142997
(lp313
I44301
aI61798
aI823179
aI1627179
aI2166679
aI2445724
aI2528914
aI3690728
aI4134323
aI50509720
asI5881432
(lp314
I4726252
aI5142174
aI5552239
aI8357895
aI14480835
aI199517787
asI243580505
(lp315
I227137309
asI2768474
(lp316
I3211230
aI3272973
aI6337282
aI17097306
aI76705031
asI199517787
(lp317
I823179
aI4246065
aI5881432
aI14480835
aI52179855
aI60225019
aI104102812
aI121891810
aI154545004
asI8310364
(lp318
I61798
aI868976
aI1475550
aI1688214
aI1782672
aI2067334
aI2298846
aI2424111
aI2534672
aI2724710
aI2749350
aI3022697
aI3085883
aI3111376
aI3272973
aI3367292
aI3427306
aI3503953
aI3958533
aI3969942
aI4134323
aI4250608
aI4338236
aI4402065
aI4403216
aI4447169
aI4456443
aI4462792
aI4524732
aI4575649
aI4602036
aI4649435
aI4663095
aI4785467
aI4932215
aI5126991
aI5212420
aI5436168
aI6041426
aI7867790
aI7950737
aI8357895
aI8422151
aI10032063
aI11656665
aI11661890
aI11747688
aI12663454
aI14419007
aI49028999
aI58611990
asI85677663
(lp319
I823179
aI1723039
aI2445724
aI5521236
aI6564065
aI9006308
aI11656665
aI14195123
aI18006023
aI20347657
aI27924385
aI68793847
aI122111395
aI124491074
asI181562984
(lp320
I337032
aI642565
aI867582
aI1257981
aI1576059
aI1628224
aI2039481
aI2530452
aI3171461
aI3211230
aI3533673
aI5725487
aI5740275
aI6337282
aI7210301
aI7988989
aI8357895
aI8898445
aI9757312
aI10843436
aI11045234
aI11493685
aI11531487
aI11829392
aI12073500
aI12103340
aI12305229
aI17645989
aI20204808
aI22097964
aI24960877
aI25124243
aI26231519
aI26844369
aI29114306
aI32427674
aI38165520
aI38990041
aI41853154
aI43348979
aI49406612
aI55483095
aI65029737
aI67160479
aI76705031
aI96517058
aI98358711
aI108219695
aI137074674
aI139365724
aI149072396
aI151924147
aI156146269
aI156400262
aI187023566
aI192019818
aI197540093
aI200702506
asI65029737
(lp321
I642565
aI867582
aI1257981
aI1628224
aI1963369
aI2039481
aI2530452
aI2709150
aI3211230
aI8898445
aI11045234
aI11493685
aI12103340
aI17645989
aI20204808
aI22097964
aI24960877
aI25124243
aI26707251
aI29114306
aI38165520
aI38990041
aI41853154
aI43348979
aI49406612
aI55483095
aI76705031
aI93848406
aI96517058
aI137074674
aI149072396
aI156146269
aI181562984
aI184072820
aI187023566
aI192019818
asI20784747
(lp322
I7100223
asI52887152
(lp323
I3272973
aI3691649
aI15156485
aI23403596
asI1812082
(lp324
I44301
aI362794
aI1782672
aI2178259
aI2972157
aI3111376
aI3355127
aI3782943
aI4447169
aI5436168
aI6564065
aI11661890
aI18322878
asI4753012
(lp325
I44301
aI823179
aI1489338
aI1787388
aI2067334
aI2298846
aI2424111
aI2528914
aI2724710
aI3423900
aI3503953
aI3782943
aI4381327
aI4403216
aI4415603
aI4649435
aI5170532
aI5882133
aI6041426
aI7525395
aI10822578
aI18322878
asI170978935
(lp326
I3691649
aI29461300
aI109399539
aI124919652
aI151765137
aI276945965
asI29122171
(lp327
I1738161
aI2039481
aI8898445
aI55483095
aI108219695
aI184072820
asI105211516
(lp328
I44843
aI2749350
aI3969942
aI4403216
aI5126991
aI6041426
aI7102538
aI8357895
aI9422540
aI11656665
aI12100787
aI12293865
aI12821547
aI14419007
aI18006023
aI18322878
aI19364754
aI49028999
aI58611990
aI62861860
aI98583916
aI124491074
asI2528914
(lp329
I44301
aI61798
aI362794
aI663032
aI823179
aI1213158
aI1627179
aI1787388
aI1794556
aI2067334
aI2166679
aI2298846
aI2424111
aI2724710
aI2749350
aI3022697
aI3085883
aI3132711
aI3272973
aI3365230
aI3690728
aI4134323
aI4403216
aI4649435
aI4753012
aI4870053
aI4932215
aI5126991
aI5436168
aI5882133
aI7142997
aI7227401
aI7659812
aI7676417
aI8357895
aI9006308
aI9937527
aI10032063
aI11656665
aI11661890
aI11747688
aI12100787
aI12663454
aI18322878
aI19364754
aI28601046
aI35791758
asI99241624
(lp330
I6691431
aI9303982
aI18675812
aI38571737
asI32427674
(lp331
I337032
aI1576059
aI1738161
aI2039481
aI3171461
aI3272973
aI5740275
aI8898445
aI11045234
aI12073500
aI17645989
aI20204808
aI24960877
aI25124243
aI26231519
aI29114306
aI38165520
aI38990041
aI40976682
aI41130644
aI67160479
aI76705031
aI78068394
aI96517058
aI137074674
aI145136254
aI149072396
aI159772907
aI181562984
aI197540093
asI3423900
(lp332
I44301
aI2067334
aI2166679
aI2178259
aI2298846
aI2424111
aI2445724
aI2534672
aI2724710
aI3022697
aI3111376
aI3132711
aI3782943
aI4134323
aI4524732
aI4649435
aI4753012
aI7227401
aI7525395
aI7950737
aI11661890
aI11871890
aI63282622
asI5142174
(lp333
I867582
aI1738161
aI4403216
aI4726252
aI5552239
aI5881432
aI8357895
aI29114306
aI77303348
asI12103340
(lp334
I337032
aI642565
aI1257981
aI1628224
aI2039481
aI3171461
aI3211230
aI3272973
aI3533673
aI5740275
aI6337282
aI7988989
aI8898445
aI9757312
aI10843436
aI11045234
aI11493685
aI12073500
aI17645989
aI20204808
aI24960877
aI26231519
aI26844369
aI29114306
aI38165520
aI38990041
aI41853154
aI43348979
aI49406612
aI55483095
aI65029737
aI67160479
aI76705031
aI96517058
aI98358711
aI108219695
aI137074674
aI139365724
aI149072396
aI156146269
aI156400262
aI174912561
aI181562984
aI184072820
aI187023566
aI192019818
aI197540093
aI200702506
asI63504046
(lp335
I67160479
aI156400262
asI2039481
(lp336
I337032
aI642565
aI867582
aI1628224
aI1738161
aI2530452
aI3171461
aI3211230
aI3945263
aI5725487
aI6337282
aI8898445
aI9757312
aI11045234
aI11531487
aI12073500
aI12103340
aI12305229
aI17645989
aI20204808
aI26844369
aI29114306
aI29122171
aI32427674
aI41130644
aI49406612
aI55483095
aI65029737
aI67160479
aI76705031
aI77303348
aI96517058
aI98358711
aI108219695
aI137074674
aI139365724
aI149072396
aI181562984
aI184072820
aI187023566
aI192019818
aI197540093
aI200702506
asI34805445
(lp337
I61798
aI741634
aI1489338
aI1627179
aI4250608
aI9006308
aI9337624
aI18322878
aI19600783
aI35791758
aI138482951
asI9937527
(lp338
I823179
aI1213158
aI1723039
aI2528914
aI2574116
aI2724710
aI2749350
aI3272973
aI3365230
aI3958533
aI4246065
aI4403216
aI4793841
aI4870053
aI4932215
aI5659921
aI6279501
aI6564065
aI7102538
aI7937518
aI8357895
aI9006308
aI9209743
aI9422540
aI10822578
aI11656665
aI12100787
aI12288223
aI12293865
aI13563399
aI14386267
aI14419007
aI15440303
aI16665204
aI17097306
aI18006023
aI19176414
aI19364754
aI20347657
aI21142205
aI27924385
aI32262815
aI38165520
aI38492261
aI40930566
aI44891108
aI50299418
aI57243836
aI58819874
aI61758963
aI62861860
aI68793847
aI77303348
aI85716066
aI94213506
aI104102812
aI106637969
aI124491074
aI134506574
aI145136254
aI146831330
aI153172414
aI155667308
aI156104417
aI166942832
aI168323115
aI182308838
aI186064669
aI208981271
asI9422540
(lp339
I44843
aI362794
aI823179
aI868976
aI1174012
aI1213158
aI1471861
aI1723039
aI1787388
aI2724710
aI2749350
aI3215452
aI3272973
aI3365230
aI3367292
aI3503953
aI3958533
aI4250608
aI4403216
aI4575649
aI4870053
aI4932215
aI5126991
aI5436168
aI6041426
aI6564065
aI7102538
aI8027201
aI8182109
aI8357895
aI9006308
aI9209743
aI9687459
aI9749243
aI9937527
aI10032063
aI10822578
aI11656665
aI11747688
aI12100787
aI12293865
aI12821547
aI13563399
aI14195123
aI14386267
aI14419007
aI18006023
aI18312036
aI19364754
aI19600783
aI20222256
aI20347657
aI32262815
aI40930566
aI49028999
aI50299418
aI55065384
aI60225019
aI62861860
aI68793847
aI76705031
aI77701046
aI98583916
aI105211516
aI124491074
aI134506574
aI138482951
aI146831330
aI192288556
asI2750169
(lp340
I891254
aI17097306
aI61770256
aI216093294
asI156104417
(lp341
I823179
aI3272973
aI4403216
aI4793841
aI4870053
aI6279501
aI9006308
aI9937527
aI13563399
aI19176414
aI19364754
aI28601046
aI44891108
aI57243836
aI61758963
aI62861860
aI68793847
aI88620086
aI104102812
aI145136254
aI166942832
aI168323115
aI186064669
aI241090828
asI13164261
(lp342
I2013678
aI4940196
aI6797432
aI7659812
aI7676417
aI7731447
aI8311563
aI9566269
aI17931307
aI48359445
aI49236330
asI12293865
(lp343
I362794
aI823179
aI868976
aI1174012
aI1213158
aI1475550
aI1723039
aI2724710
aI2749350
aI3272973
aI3365230
aI3503953
aI3958533
aI4250608
aI4403216
aI4649435
aI4870053
aI4932215
aI5126991
aI6041426
aI6279501
aI7102538
aI7227401
aI7937518
aI8027201
aI8182109
aI8357895
aI8422151
aI8644587
aI9006308
aI9337624
aI9422540
aI9749243
aI9937527
aI10032063
aI10822578
aI11656665
aI12100787
aI12288223
aI12821547
aI13563399
aI14419007
aI14480835
aI15440303
aI15860009
aI16665204
aI18006023
aI18312036
aI18322878
aI19364754
aI20222256
aI20347657
aI24213035
aI27924385
aI28601046
aI32262815
aI33476650
aI38492261
aI40930566
aI49028999
aI50299418
aI55065384
aI58611990
aI58819874
aI60225019
aI61758963
aI62861860
aI68793847
aI77303348
aI87076022
aI88620086
aI98583916
aI105211516
aI106637969
aI122111395
aI124491074
aI134506574
aI138482951
aI140195205
aI146831330
aI153172414
aI166942832
aI182308838
aI186064669
asI82409195
(lp344
I2709150
aI7210301
aI8898445
aI10843436
aI11493685
aI20204808
aI22097964
aI24960877
aI26231519
aI29114306
aI43348979
aI67160479
aI76705031
aI94989441
aI96517058
aI109391951
aI139365724
aI149072396
aI156400262
aI197540093
aI226440450
asI5740275
(lp345
I224552
aI337032
aI642565
aI867582
aI1257981
aI1576059
aI1628224
aI1738161
aI2530452
aI2709150
aI3085883
aI3171461
aI3211230
aI3272973
aI3355127
aI3533673
aI3945263
aI5725487
aI6337282
aI7210301
aI7988989
aI8357895
aI8898445
aI9757312
aI10843436
aI11045234
aI11493685
aI11531487
aI11829392
aI12073500
aI12103340
aI12305229
aI17645989
aI20204808
aI22097964
aI23416977
aI24960877
aI26231519
aI26844369
aI29114306
aI32427674
aI38165520
aI38990041
aI40976682
aI41130644
aI41853154
aI43348979
aI49406612
aI55483095
aI58819874
aI67160479
aI67388399
aI76705031
aI77303348
aI78068394
aI87442515
aI93848406
aI96517058
aI98358711
aI108219695
aI122111395
aI137074674
aI139365724
aI149072396
aI151924147
aI156146269
aI156400262
aI181562984
aI192019818
aI197540093
aI200702506
aI226440450
asI6514424
(lp346
I823179
aI1688214
aI2955687
aI3022697
aI3047885
aI3085883
aI3503953
aI4338188
aI4338236
aI4402065
aI4462792
aI4649435
aI4932215
aI5212420
aI6041426
asI7988989
(lp347
I337032
aI642565
aI867582
aI1257981
aI1576059
aI1628224
aI1963369
aI2530452
aI3533673
aI5740275
aI8898445
aI9757312
aI10843436
aI11045234
aI11493685
aI11531487
aI11829392
aI12073500
aI12103340
aI12305229
aI17645989
aI19138731
aI20204808
aI24960877
aI26231519
aI26844369
aI29114306
aI38165520
aI55483095
aI76705031
aI87442515
aI98358711
aI137074674
aI139365724
aI149072396
aI151924147
aI156146269
aI156400262
aI181562984
aI187023566
aI192019818
aI200702506
asI3958533
(lp348
I823179
aI868976
aI1475550
aI1723039
aI2574116
aI2724710
aI2749350
aI3047885
aI3085883
aI3272973
aI3365230
aI3367292
aI3427306
aI3503953
aI3969942
aI4250608
aI4403216
aI4456443
aI4462792
aI4524732
aI4649435
aI4785467
aI4870053
aI4932215
aI5126991
aI5521236
aI6564065
aI6578008
aI7102538
aI7227401
aI7937518
aI8027201
aI8161055
aI8182109
aI8310364
aI8357895
aI8644587
aI9006308
aI9209743
aI9337624
aI9422540
aI9687459
aI9749243
aI9937527
aI10032063
aI10822578
aI11656665
aI11747688
aI12100787
aI12288223
aI12293865
aI12821547
aI13563399
aI14386267
aI14419007
aI15440303
aI16665204
aI18006023
aI18312036
aI18322878
aI19364754
aI20222256
aI24213035
aI28601046
aI32262815
aI38492261
aI49028999
aI50299418
aI55065384
aI62861860
aI77701046
aI122111395
aI124491074
aI134506574
aI153172414
aI160452457
aI182308838
asI108219695
(lp349
I160173
aI337032
aI867582
aI1576059
aI1628224
aI1738161
aI2039481
aI3171461
aI3211230
aI3272973
aI5725487
aI5740275
aI6337282
aI7210301
aI8357895
aI8898445
aI10843436
aI11531487
aI11829392
aI12073500
aI12103340
aI17097306
aI17645989
aI20204808
aI23416977
aI26231519
aI29114306
aI29122171
aI38165520
aI41130644
aI41853154
aI49406612
aI53877646
aI55483095
aI58819874
aI67160479
aI67388399
aI76705031
aI77303348
aI78068394
aI93848406
aI96517058
aI98358711
aI136112029
aI149072396
aI181562984
aI184072820
aI197540093
asI186064669
(lp350
I823179
aI1174012
aI1475550
aI1723039
aI2749350
aI3272973
aI3365230
aI4246065
aI4403216
aI4793841
aI4870053
aI6279501
aI6564065
aI9006308
aI9937527
aI10822578
aI11656665
aI12293865
aI13563399
aI14386267
aI14480835
aI19364754
aI20347657
aI28601046
aI33476650
aI38492261
aI40930566
aI44891108
aI57243836
aI59377168
aI60225019
aI61758963
aI62861860
aI68793847
aI87076022
aI88620086
aI104102812
aI106637969
aI121891810
aI124491074
aI134506574
aI141454512
aI144190860
aI155667308
aI156104417
aI166942832
aI168942768
aI169168450
aI199864652
aI241090828
asI8161055
(lp351
I823179
aI868976
aI2424111
aI2724710
aI2749350
aI3047885
aI3215452
aI3272973
aI3427306
aI3503953
aI3958533
aI3969942
aI4456443
aI4462792
aI4602036
aI4649435
aI4694550
aI4932215
aI5126991
aI5521236
aI6564065
aI6578008
aI7950737
aI8182109
aI8357895
aI8644587
aI9006308
aI10032063
aI11656665
aI11871890
aI14195123
aI18322878
aI20222256
aI35791758
aI40053469
aI49028999
asI2574116
(lp352
I362794
aI471871
aI823179
aI1213158
aI2749350
aI3272973
aI3365230
aI3958533
aI3969942
aI4338188
aI4403216
aI4870053
aI5126991
aI8357895
aI9749243
aI9937527
aI10032063
aI11656665
aI11661890
aI12100787
aI15440303
aI18006023
aI19364754
aI20347657
aI28601046
aI40930566
aI49028999
aI50299418
aI122111395
aI124491074
aI154823176
asI22315
(lp353
I18322878
aI35791758
asI65324
(lp354
I12662
aI44301
aI44843
aI61798
aI362794
aI703770
aI741634
aI823179
aI868976
aI908771
aI1213158
aI1471861
aI1782672
aI1787388
aI1824853
aI2551939
aI3111376
aI3272973
aI3365230
aI4246065
aI4403216
aI4793841
aI5436168
aI9006308
aI9337624
aI10032063
aI11661890
aI12288223
aI18006023
aI18322878
aI124491074
asI19176414
(lp355
I823179
aI1787388
aI2749350
aI3272973
aI4870053
aI4932215
aI6279501
aI8357895
aI9337624
aI9937527
aI11656665
aI12288223
aI13563399
aI16665204
aI18322878
aI19364754
aI27924385
aI28601046
aI38492261
aI40930566
aI57243836
aI58819874
aI61758963
aI62861860
aI68793847
aI85716066
aI88620086
aI98583916
aI104102812
aI106637969
aI153172414
aI155667308
aI156104417
aI166942832
aI168323115
aI208981271
aI241090828
asI4663095
(lp356
I823179
aI868976
aI1475550
aI2749350
aI2955687
aI3111376
aI3503953
aI3969942
aI4250608
aI4403216
aI4462792
aI4524732
aI4785467
aI4932215
aI5126991
aI6564065
aI8310364
aI8357895
aI8422151
aI9006308
aI11656665
aI11747688
asI7100223
(lp357
I5436168
aI18322878
aI20784747
asI4035470
(lp358
I2097438
asI121891810
(lp359
I14480835
aI20347657
aI44891108
aI88620086
aI104102812
aI141454512
aI154545004
aI186064669
aI199517787
asI3503953
(lp360
I12662
aI44301
aI44843
aI61798
aI741634
aI823179
aI868976
aI1213158
aI1471861
aI1475550
aI1627179
aI1688214
aI1723039
aI1782672
aI1787388
aI2067334
aI2166679
aI2298846
aI2424111
aI2724710
aI2749350
aI2825414
aI2955687
aI3022697
aI3047885
aI3085883
aI3132711
aI3215452
aI3272973
aI3365230
aI3367292
aI3427306
aI3782943
aI3958533
aI3969942
aI4134323
aI4338188
aI4338236
aI4402065
aI4403216
aI4456443
aI4462792
aI4524732
aI4575649
aI4602036
aI4649435
aI4663095
aI4694550
aI4753012
aI4785467
aI4870053
aI4932215
aI5126991
aI5212420
aI5358450
aI5436168
aI5521236
aI6041426
aI6514424
aI6564065
aI6578008
aI7102538
aI7950737
aI8161055
aI8182109
aI8310364
aI8357895
aI9006308
aI9422540
aI9749243
aI10032063
aI11656665
aI11661890
aI11747688
aI12100787
aI12288223
aI12293865
aI14419007
aI18006023
aI18312036
aI18322878
aI36565016
aI38255473
aI39033081
aI49028999
aI50509720
aI55065384
aI62861860
aI77701046
aI124491074
aI134506574
aI138482951
aI154823176
asI6041426
(lp361
I44843
aI362794
aI823179
aI868976
aI1688214
aI2749350
aI3022697
aI3047885
aI3085883
aI3272973
aI3365230
aI3367292
aI3503953
aI3969942
aI4338236
aI4402065
aI4403216
aI4456443
aI4462792
aI4524732
aI4575649
aI4649435
aI4694550
aI4753012
aI4785467
aI4870053
aI4932215
aI5126991
aI5212420
aI5436168
aI5521236
aI6279501
aI6514424
aI7227401
aI7525395
aI7867790
aI7950737
aI8310364
aI8357895
aI8610956
aI9006308
aI9337624
aI9422540
aI10822578
aI11656665
aI11747688
aI11871890
aI12100787
aI12288223
aI12293865
aI13563399
aI15440303
aI18006023
aI18312036
aI19364754
aI20347657
aI26844369
aI28601046
aI32262815
aI38165520
aI39033081
aI49028999
aI50299418
aI58611990
aI58819874
aI68793847
aI77303348
aI105211516
aI124491074
aI134506574
aI178848778
asI5521236
(lp362
I362794
aI823179
aI1475550
aI1688214
aI2724710
aI2749350
aI2972157
aI3085883
aI3272973
aI3427306
aI3503953
aI3958533
aI4338236
aI4402065
aI4456443
aI4462792
aI4575649
aI4649435
aI4932215
aI5212420
aI6041426
aI6564065
aI6578008
aI7102538
aI7227401
aI7525395
aI7937518
aI7950737
aI8027201
aI8161055
aI8182109
aI10032063
aI11656665
aI12100787
aI13563399
aI14195123
aI14386267
aI28601046
aI38492261
aI49028999
aI55065384
aI58611990
aI59377168
aI62861860
aI85677663
asI94875485
(lp363
I3691649
aI4334114
aI12134823
aI23403596
aI29461300
aI29573128
aI109399539
aI124919652
aI128324832
aI146010450
aI151765137
aI184414101
aI191512920
aI195536276
asI124919652
(lp364
I3691649
aI4334114
aI15156485
aI23403596
aI29461300
aI29573128
aI94875485
aI109399539
aI128324832
aI146010450
aI151765137
aI170978935
aI184414101
aI210127151
aI238890085
aI276945965
asI3022697
(lp365
I823179
aI868976
aI1688214
aI2298846
aI2424111
aI2528914
aI2534672
aI2749350
aI2955687
aI2972157
aI3047885
aI3085883
aI3423900
aI3427306
aI3489196
aI3503953
aI3782943
aI4134323
aI4338188
aI4338236
aI4402065
aI4403216
aI4456443
aI4462792
aI4524732
aI4649435
aI5170532
aI5212420
aI5358450
aI6041426
aI6514424
aI7227401
aI7287778
aI7525395
aI7950737
aI8310364
aI10032063
aI11661890
aI14419007
aI154823176
asI11871890
(lp366
I44301
aI44843
aI823179
aI868976
aI1213158
aI1787388
aI2067334
aI2424111
aI2445724
aI2534672
aI2749350
aI2972157
aI3272973
aI3365230
aI3423900
aI4250608
aI4870053
aI5436168
aI6041426
aI6564065
aI7525395
aI7950737
aI8161055
aI8357895
aI9006308
aI10032063
aI11656665
aI11747688
aI12100787
aI12288223
aI18006023
aI18322878
aI28601046
aI62861860
aI124491074
aI138482951
asI184072820
(lp367
I337032
aI642565
aI867582
aI1576059
aI1738161
aI2039481
aI2530452
aI3171461
aI3211230
aI6337282
aI8898445
aI12103340
aI17645989
aI20204808
aI23416977
aI24960877
aI26231519
aI29114306
aI29122171
aI38165520
aI41853154
aI43348979
aI49406612
aI55483095
aI65029737
aI76705031
aI77303348
aI78068394
aI96517058
aI108219695
aI137074674
aI149072396
aI174912561
aI187023566
aI197540093
asI49406612
(lp368
I224552
aI337032
aI642565
aI867582
aI1257981
aI1576059
aI1628224
aI1738161
aI2039481
aI2530452
aI2709150
aI3171461
aI3211230
aI3272973
aI5725487
aI5740275
aI6337282
aI7210301
aI8357895
aI8898445
aI10843436
aI11493685
aI11531487
aI11829392
aI12103340
aI12305229
aI17645989
aI19138731
aI20204808
aI22097964
aI24960877
aI25124243
aI26231519
aI29114306
aI38165520
aI41853154
aI43348979
aI55483095
aI58819874
aI65029737
aI67160479
aI76705031
aI87442515
aI93848406
aI96517058
aI98358711
aI108219695
aI136112029
aI137074674
aI149072396
aI151924147
aI156400262
aI181562984
aI184072820
aI187023566
aI192019818
aI197540093
aI200702506
asI49028999
(lp369
I44843
aI823179
aI868976
aI1475550
aI2574116
aI2749350
aI3215452
aI3272973
aI3365230
aI3427306
aI3503953
aI3958533
aI3969942
aI4250608
aI4403216
aI4649435
aI4870053
aI4932215
aI5126991
aI5521236
aI6041426
aI6564065
aI7102538
aI8161055
aI8310364
aI8357895
aI9006308
aI9209743
aI9337624
aI9422540
aI9687459
aI9749243
aI10032063
aI11656665
aI11747688
aI12100787
aI12288223
aI12293865
aI12821547
aI13563399
aI14386267
aI14419007
aI15440303
aI18006023
aI18312036
aI18322878
aI19364754
aI28601046
aI36565016
aI39033081
aI40053469
aI55065384
aI58611990
aI59377168
aI62861860
aI105211516
aI122111395
aI124491074
aI134506574
aI138482951
aI168942768
asI823179
(lp370
I9535
aI12662
aI44301
aI61798
aI65324
aI362794
aI741634
aI868976
aI1174012
aI1213158
aI1471861
aI1475550
aI1627179
aI1688214
aI1723039
aI1782672
aI1787388
aI1824853
aI1918327
aI2067334
aI2298846
aI2424111
aI2445724
aI2528914
aI2534672
aI2551939
aI2574116
aI2724710
aI2749350
aI2955687
aI3022697
aI3085883
aI3132711
aI3215452
aI3272973
aI3365230
aI3367292
aI3427306
aI3503953
aI3690728
aI3958533
aI3969942
aI4134323
aI4250608
aI4338188
aI4338236
aI4402065
aI4403216
aI4456443
aI4462792
aI4602036
aI4649435
aI4663095
aI4694550
aI4753012
aI4793841
aI4870053
aI4932215
aI5126991
aI5170532
aI5207688
aI5212420
aI5436168
aI5521236
aI6041426
aI6514424
aI6564065
aI6578008
aI7102538
aI7142997
aI7227401
aI7287778
aI7525395
aI7867790
aI7937518
aI7950737
aI8027201
aI8161055
aI8182109
aI8357895
aI8422151
aI8644587
aI9006308
aI9209743
aI9337624
aI9422540
aI9687459
aI9749243
aI9937527
aI10032063
aI10624507
aI10822578
aI11656665
aI11661890
aI11747688
aI11871890
aI12100787
aI12288223
aI12293865
aI12663454
aI12821547
aI13563399
aI14195123
aI14386267
aI14419007
aI14480835
aI15860009
aI16665204
aI18006023
aI18312036
aI19176414
aI19364754
aI20222256
aI20347657
aI24213035
aI27924385
aI28601046
aI36565016
aI38255473
aI38492261
aI39033081
aI40053469
aI40930566
aI44891108
aI49028999
aI50299418
aI50509720
aI55065384
aI57243836
aI58611990
aI59377168
aI60225019
aI61758963
aI62861860
aI68793847
aI77701046
aI85677663
aI87076022
aI88620086
aI98583916
aI104102812
aI106637969
aI122111395
aI124491074
aI140195205
aI146831330
aI153172414
aI154545004
aI154823176
aI156104417
aI160452457
aI164791675
aI168323115
aI169168450
aI182308838
aI186064669
aI199517787
aI208981271
aI241090828
asI8898445
(lp371
I337032
aI642565
aI867582
aI1447491
aI1576059
aI1628224
aI1738161
aI2039481
aI2530452
aI2709150
aI3171461
aI3211230
aI3272973
aI3533673
aI3945263
aI5725487
aI5740275
aI6337282
aI7210301
aI7988989
aI8357895
aI10843436
aI11045234
aI11493685
aI11531487
aI11829392
aI12073500
aI12103340
aI17445314
aI17645989
aI19154846
aI20204808
aI22097964
aI23416977
aI24960877
aI26231519
aI26707251
aI26844369
aI29114306
aI29122171
aI32427674
aI36620360
aI38165520
aI38990041
aI40976682
aI41130644
aI41853154
aI43348979
aI49406612
aI53877646
aI55483095
aI58819874
aI65029737
aI67160479
aI76705031
aI78068394
aI82409195
aI93848406
aI96517058
aI98358711
aI108219695
aI109391951
aI136112029
aI137074674
aI139365724
aI149072396
aI151924147
aI156400262
aI159772907
aI181224253
aI181562984
aI184072820
aI192019818
aI197540093
aI226440450
aI321263733
asI9209743
(lp372
I823179
aI1174012
aI3272973
aI3365230
aI3958533
aI3969942
aI4403216
aI4649435
aI4870053
aI4932215
aI5126991
aI7937518
aI8027201
aI8644587
aI9422540
aI9937527
aI11656665
aI12100787
aI12821547
aI13563399
aI16665204
aI18006023
aI18312036
aI27924385
aI28601046
aI32262815
aI49028999
aI50299418
aI77701046
aI85716066
aI140195205
asI184414101
(lp373
I12134823
aI94875485
aI109399539
aI124919652
aI151765137
aI168721873
aI210127151
aI229676271
aI238890085
aI290386256
asI2166679
(lp374
I1782672
aI2067334
aI2178259
aI2298846
aI2424111
aI2528914
aI2534672
aI2551939
aI2972157
aI3111376
aI3423900
aI3503953
aI3690728
aI4134323
aI4415603
aI4524732
aI5170532
aI5265943
aI5436168
aI5882133
aI7142997
aI7227401
aI7525395
aI7950737
aI11661890
asI50509720
(lp375
I44301
aI61798
aI823179
aI1787388
aI2424111
aI2445724
aI2551939
aI2876356
aI3503953
aI3690728
aI4381327
aI5161123
aI5170532
aI5265943
aI6797432
aI7142997
aI7659812
aI63282622
asI19154846
(lp376
I3272973
aI8898445
aI11493685
aI11531487
aI139365724
asI1867680
(lp377
I663032
aI1000576
aI1794556
aI5161123
aI5171533
aI7295632
aI7659812
aI92094476
aI96542788
asI27924385
(lp378
I823179
aI1723039
aI2724710
aI2749350
aI3365230
aI4870053
aI5126991
aI6564065
aI8357895
aI9006308
aI9209743
aI9337624
aI9937527
aI12288223
aI12293865
aI12821547
aI13563399
aI14386267
aI14419007
aI16665204
aI18006023
aI19176414
aI19364754
aI20347657
aI28601046
aI38492261
aI40930566
aI57243836
aI59377168
aI61758963
aI68793847
aI85677663
aI85716066
aI106637969
aI153172414
aI160452457
aI169168450
aI208981271
aI241090828
asI4870053
(lp379
I362794
aI823179
aI868976
aI1174012
aI1213158
aI1475550
aI1723039
aI1787388
aI2528914
aI2574116
aI2724710
aI2749350
aI3272973
aI3365230
aI3503953
aI3958533
aI4246065
aI4250608
aI4403216
aI4649435
aI4793841
aI4932215
aI5126991
aI6041426
aI6279501
aI6564065
aI7102538
aI7937518
aI8027201
aI8357895
aI8422151
aI9006308
aI9209743
aI9337624
aI9422540
aI9687459
aI9749243
aI9937527
aI10032063
aI10822578
aI11656665
aI11871890
aI12100787
aI12288223
aI12293865
aI12821547
aI13563399
aI14386267
aI14419007
aI15440303
aI16665204
aI17097306
aI18006023
aI18312036
aI18322878
aI19176414
aI19364754
aI20347657
aI27924385
aI28601046
aI32262815
aI38492261
aI44891108
aI49028999
aI50299418
aI55065384
aI57243836
aI58611990
aI58819874
aI59377168
aI60225019
aI61758963
aI62861860
aI68793847
aI77303348
aI77701046
aI88620086
aI98583916
aI104102812
aI106637969
aI122111395
aI124491074
aI134506574
aI140195205
aI146831330
aI156104417
aI166942832
aI186064669
aI241090828
asI9303982
(lp380
I3085883
aI6691431
aI18322878
aI18675812
aI35791758
aI99241624
asI2709150
(lp381
I224552
aI337032
aI1576059
aI1628224
aI1738161
aI2530452
aI3085883
aI3171461
aI3211230
aI3945263
aI5725487
aI5740275
aI6337282
aI7210301
aI8898445
aI17645989
aI22097964
aI23416977
aI36620360
aI49406612
aI53877646
aI55483095
aI58819874
aI65029737
aI67160479
aI67388399
aI76705031
aI77303348
aI82409195
aI139365724
aI149072396
aI156400262
aI181224253
aI187023566
aI192019818
aI200702506
aI226440450
asI77701046
(lp382
I823179
aI2298846
aI3085883
aI3367292
aI3503953
aI3958533
aI4456443
aI4524732
aI4649435
aI4785467
aI4870053
aI5126991
aI5170532
aI5265943
aI7102538
aI8027201
aI8644587
aI9209743
aI9422540
aI9687459
aI10032063
aI12100787
aI19364754
aI38255473
aI50299418
aI55065384
aI85716066
asI32262815
(lp383
I2749350
aI3958533
aI4793841
aI4870053
aI6041426
aI7102538
aI7937518
aI8422151
aI9006308
aI9209743
aI9422540
aI9749243
aI9937527
aI12293865
aI12821547
aI13563399
aI14419007
aI15440303
aI15860009
aI18312036
aI19364754
aI28601046
aI50299418
aI57243836
aI60225019
aI61758963
aI62861860
aI98583916
aI104102812
aI124491074
aI146831330
aI169168450
asI3340222
(lp384
I1385997
aI2972157
aI4338188
aI5358450
aI20461028
asI29114306
(lp385
I337032
aI642565
aI867582
aI1628224
aI1738161
aI2039481
aI3171461
aI3211230
aI3272973
aI3533673
aI4932215
aI5142174
aI5725487
aI5740275
aI6337282
aI7210301
aI7988989
aI8357895
aI8898445
aI10843436
aI11493685
aI11531487
aI12073500
aI12103340
aI12305229
aI17645989
aI20204808
aI22097964
aI23416977
aI24960877
aI26231519
aI26844369
aI32427674
aI36620360
aI38165520
aI41853154
aI43348979
aI49406612
aI55483095
aI58819874
aI65029737
aI67160479
aI67388399
aI76705031
aI77303348
aI78068394
aI82409195
aI93848406
aI96517058
aI108219695
aI137074674
aI139365724
aI149072396
aI156146269
aI156400262
aI174912561
aI181562984
aI184072820
aI192019818
aI197540093
aI200702506
aI226440450
asI6279501
(lp386
I2749350
aI3272973
aI3365230
aI4246065
aI4403216
aI4870053
aI4932215
aI6041426
aI8357895
aI8610956
aI9937527
aI11656665
aI12100787
aI12293865
aI13563399
aI18006023
aI19176414
aI19364754
aI20347657
aI28601046
aI40930566
aI44891108
aI50299418
aI57243836
aI58611990
aI58819874
aI61758963
aI68793847
aI77303348
aI104102812
aI134506574
aI145136254
aI146831330
aI156104417
aI166942832
aI186064669
asI284345679
(lp387
I4435079
asI3211230
(lp388
I337032
aI642565
aI1257981
aI1576059
aI1628224
aI2039481
aI2530452
aI2709150
aI2768474
aI3085883
aI3533673
aI5740275
aI6337282
aI7210301
aI8898445
aI10843436
aI11045234
aI11493685
aI12103340
aI17445314
aI17645989
aI20204808
aI22097964
aI24960877
aI25124243
aI26231519
aI26844369
aI29114306
aI38165520
aI38990041
aI41130644
aI41853154
aI43348979
aI49406612
aI55483095
aI65029737
aI67160479
aI76705031
aI77303348
aI78068394
aI96517058
aI108219695
aI137074674
aI139365724
aI149072396
aI151924147
aI156146269
aI156400262
aI174912561
aI181562984
aI184072820
aI192019818
aI197540093
aI200702506
asI2920418
(lp389
I3272973
asI182308838
(lp390
I823179
aI3272973
aI3958533
aI4403216
aI6564065
aI7102538
aI8357895
aI9006308
aI9337624
aI9749243
aI9937527
aI10032063
aI11656665
aI12100787
aI12288223
aI12293865
aI13563399
aI14386267
aI14480835
aI15860009
aI19364754
aI28601046
aI44891108
aI59377168
aI61758963
aI62861860
aI87076022
aI104102812
aI106637969
aI124491074
aI145136254
aI160452457
aI166942832
aI168323115
asI192288556
(lp391
sI8644587
(lp392
I823179
aI868976
aI3958533
aI3969942
aI4649435
aI7102538
aI8027201
aI8161055
aI9209743
aI9687459
aI10032063
aI12100787
aI12293865
aI19364754
aI55065384
aI77701046
asI137074674
(lp393
I224552
aI337032
aI642565
aI867582
aI1257981
aI1576059
aI1628224
aI1963369
aI2039481
aI2530452
aI3211230
aI3272973
aI3533673
aI5725487
aI5740275
aI6337282
aI7210301
aI7988989
aI8898445
aI9757312
aI10843436
aI11045234
aI11493685
aI11531487
aI11829392
aI12073500
aI12103340
aI12305229
aI17445314
aI17645989
aI19138731
aI20204808
aI24960877
aI26231519
aI26844369
aI29114306
aI32427674
aI38165520
aI38990041
aI41853154
aI43348979
aI49406612
aI55483095
aI58819874
aI65029737
aI67160479
aI76705031
aI87442515
aI96517058
aI98358711
aI149072396
aI156146269
aI156400262
aI181562984
aI184072820
aI187023566
aI192019818
aI197540093
asI79732725
(lp394
I229676271
aI238890085
aI290386256
asI8407031
(lp395
sI4456443
(lp396
I823179
aI1688214
aI1787388
aI2067334
aI2724710
aI2749350
aI2955687
aI3022697
aI3047885
aI3085883
aI3215452
aI3367292
aI3427306
aI3503953
aI3958533
aI3969942
aI4134323
aI4338236
aI4402065
aI4403216
aI4462792
aI4524732
aI4649435
aI4785467
aI4932215
aI5212420
aI5521236
aI5882133
aI6041426
aI7287778
aI7950737
aI8161055
aI8310364
aI10032063
aI39033081
aI58611990
aI77701046
aI154823176
as.