(dp1
I18006023
(lp2
I664118
aI701588
aI823179
aI853754
aI868976
aI881143
aI1213158
aI1723039
aI1787388
aI2574116
aI2724710
aI2749350
aI3085883
aI3215452
aI3272973
aI3365230
aI3503953
aI3771369
aI3958533
aI3969942
aI4246065
aI4250608
aI4403216
aI4649435
aI4793841
aI4870053
aI4932215
aI5126991
aI5436168
aI6041426
aI6279501
aI6564065
aI7102538
aI7851729
aI7913977
aI8027201
aI9006308
aI9422540
aI9687459
aI9749243
aI9937527
aI10032063
aI11656665
aI11871890
aI12100787
aI12259049
aI12288223
aI12293865
aI13260042
aI13563399
aI14192742
aI14386267
aI14419007
aI15440303
aI16665204
aI17097306
aI17518994
aI18312036
aI18322878
aI19364754
aI19579914
aI20021588
aI20347657
aI27196930
aI27924385
aI28601046
aI38255473
aI38492261
aI40930566
aI43670798
aI44891108
aI49028999
aI50299418
aI53796935
aI53803950
aI55065384
aI55483095
aI58819874
aI59385256
aI61758963
aI62861860
aI67616271
aI68793847
aI77303348
aI104102812
aI105211516
aI106637969
aI122111395
aI124491074
aI134506574
aI138379233
aI139080472
aI146831330
aI156232210
aI166942832
aI174992765
aI192288556
aI207210135
aI257376576
asI65542156
(lp3
I3085883
aI3969942
aI5187985
asI4403216
(lp4
I7057
aI44843
aI517119
aI664118
aI701588
aI775034
aI823179
aI868976
aI881143
aI1107242
aI1174012
aI1213158
aI1598595
aI1723039
aI1764985
aI1787388
aI2528914
aI2574116
aI2724710
aI2749350
aI2955687
aI3085883
aI3215452
aI3272973
aI3365230
aI3427306
aI3503953
aI3771369
aI3958533
aI3969942
aI4054594
aI4246065
aI4250608
aI4256203
aI4338236
aI4432381
aI4514007
aI4524732
aI4649435
aI4663095
aI4793841
aI4870053
aI4932215
aI4952928
aI5126991
aI5142174
aI5346807
aI5436168
aI5552239
aI5883723
aI6041426
aI6279501
aI6337587
aI6564065
aI7102538
aI7867790
aI7937518
aI7986433
aI7987592
aI8027201
aI8310364
aI8610956
aI9006308
aI9315103
aI9337624
aI9422540
aI9749243
aI9937527
aI10032063
aI10036756
aI11656665
aI11747688
aI12100787
aI12288223
aI12293865
aI12821547
aI13260042
aI13563399
aI14192742
aI14386267
aI14419007
aI15440303
aI15860009
aI16665204
aI16946464
aI17108389
aI18006023
aI18312036
aI18461556
aI18522943
aI19364754
aI20347657
aI23985010
aI28601046
aI30161112
aI38492261
aI40930566
aI42055887
aI43670798
aI44891108
aI49028999
aI50299418
aI55483095
aI58611990
aI58819874
aI61758963
aI62861860
aI67616271
aI67716191
aI68793847
aI77303348
aI104102812
aI105211516
aI106637969
aI124491074
aI134099929
aI134506574
aI138591781
aI145136254
aI146831330
aI174908035
aI175573457
aI178848778
aI182308838
aI241090828
aI249479611
aI295653413
asI266131475
(lp5
I7231750
aI8447058
aI10212959
aI40133144
asI579608
(lp6
I701588
aI850890
aI1213158
aI1871958
aI4793841
aI12729486
aI35779414
aI72034399
asI141125660
(lp7
I823179
aI881143
aI1723039
aI8027201
aI12821547
aI28601046
aI44891108
aI54797773
aI67616271
aI117558258
aI124491074
aI139080472
asI295653413
(lp8
I3969942
aI4403216
aI4649435
aI5346807
aI5840047
aI6453997
aI8442243
aI9372576
aI12695781
aI17940294
aI18645719
aI23369923
aI35779414
asI8276010
(lp9
I4426091
aI4573639
aI7231750
aI8447058
aI18901770
asI196419633
(lp10
I189157
aI3258201
aI3776238
aI5660622
aI9115892
aI12587306
aI17749727
aI20306016
aI49903583
aI136057724
aI190200296
asI127492149
(lp11
I853754
aI77303348
aI92691655
aI119601700
aI120281856
aI143677318
aI156498024
aI200505490
aI258746003
aI305655700
asI178848778
(lp12
I3272973
aI3771369
aI4403216
aI6041426
aI7986433
aI8610956
aI11656665
aI12100787
aI20347657
asI240986181
(lp13
I5131
aI1764985
aI3272973
aI4276532
aI4726252
aI5881432
aI7867790
aI11300089
aI19079337
asI53796935
(lp14
I4870053
aI12100787
asI7102538
(lp15
I44843
aI823179
aI868976
aI1213158
aI1723039
aI1787388
aI2724710
aI2749350
aI3085883
aI3215452
aI3272973
aI3365230
aI3367292
aI3427306
aI3503953
aI3771369
aI3958533
aI3969942
aI4054594
aI4058990
aI4191691
aI4250608
aI4403216
aI4462792
aI4524732
aI4649435
aI4793841
aI4870053
aI4932215
aI5126991
aI5227712
aI5442351
aI6564065
aI7623749
aI7937518
aI7987592
aI9006308
aI9337624
aI9422540
aI9687459
aI9749243
aI9937527
aI10032063
aI11656665
aI11747688
aI12100787
aI12288223
aI12293865
aI12821547
aI13260042
aI13563399
aI14192742
aI14386267
aI14419007
aI15002138
aI15440303
aI15860009
aI18006023
aI18312036
aI18322878
aI19364754
aI19579914
aI23985010
aI28601046
aI38492261
aI43670798
aI44891108
aI49028999
aI50299418
aI54797773
aI55065384
aI58611990
aI61758963
aI62861860
aI65741215
aI68793847
aI105211516
aI106637969
aI122111395
aI124491074
aI134506574
aI182308838
aI192288556
aI207210135
aI313967476
asI134506574
(lp16
I44843
aI701588
aI775034
aI868976
aI1213158
aI1787388
aI2749350
aI3085883
aI3272973
aI3365230
aI3503953
aI3771369
aI3958533
aI3969942
aI4403216
aI4870053
aI4932215
aI5126991
aI5436168
aI5586807
aI6041426
aI6279501
aI6564065
aI7102538
aI7867790
aI9006308
aI9337624
aI9422540
aI9937527
aI11656665
aI11747688
aI12100787
aI12288223
aI12293865
aI13563399
aI18006023
aI18322878
aI19364754
aI28601046
aI36565016
aI40930566
aI44891108
aI49028999
aI50299418
aI61758963
aI62861860
aI67616271
aI68793847
aI77303348
aI87076022
aI104102812
aI106637969
aI124491074
aI156232210
aI169168450
aI241090828
asI1871958
(lp17
I579608
aI867582
aI3171461
aI8898445
aI20204808
aI29114306
aI41130644
aI41632399
aI42180880
aI55483095
aI76705031
aI77303348
aI89032013
aI108219695
aI178274601
aI211783327
asI370777
(lp18
I14616
aI477672
aI847599
aI175861271
asI3215452
(lp19
I823179
aI868976
aI881143
aI1787388
aI2724710
aI2749350
aI3085883
aI3355127
aI3365230
aI3427306
aI3503953
aI3771369
aI3932904
aI3969942
aI4054594
aI4338236
aI4403216
aI4462792
aI4524732
aI4932215
aI4952928
aI5126991
aI5227712
aI5436168
aI5442351
aI6337587
aI6564065
aI7102538
aI7623749
aI7987592
aI8161055
aI9006308
aI9422540
aI10032063
aI11656665
aI14192742
aI14419007
aI18006023
aI18322878
aI23985010
aI49028999
aI55065384
aI62861860
asI72034399
(lp20
I579608
aI701588
aI850890
aI1213158
aI4793841
aI35779414
asI20306016
(lp21
I189157
aI3258201
aI3776238
aI4005527
aI5289777
aI5660622
aI6453997
aI7227641
aI8859864
aI9372576
aI11333121
aI12587306
aI12729486
aI13271008
aI16363770
aI17749727
aI17797695
aI17940294
aI43639787
aI53284488
aI136057724
aI138591781
aI145876672
aI172903698
aI190200296
aI196419633
asI38492261
(lp22
I881143
aI1174012
aI1787388
aI2724710
aI2749350
aI3365230
aI3367292
aI3771369
aI3958533
aI4403216
aI4870053
aI7102538
aI8027201
aI9337624
aI11656665
aI12100787
aI12288223
aI12293865
aI12821547
aI13260042
aI13563399
aI14386267
aI14419007
aI16665204
aI18006023
aI19176414
aI19364754
aI19579914
aI20347657
aI40930566
aI43670798
aI44891108
aI61758963
aI68793847
aI124491074
aI169168450
aI241090828
asI14192742
(lp23
I823179
aI868976
aI1723039
aI1787388
aI2574116
aI2724710
aI2749350
aI3085883
aI3215452
aI3272973
aI3355127
aI3365230
aI3427306
aI3503953
aI3900810
aI3958533
aI3969942
aI4191691
aI4250608
aI4403216
aI4426091
aI4432381
aI4462792
aI4524732
aI4646304
aI4649435
aI4663095
aI4694550
aI4870053
aI4932215
aI5126991
aI5207688
aI5227712
aI5442351
aI5586807
aI5789202
aI6041426
aI6279501
aI6564065
aI6578008
aI6937419
aI6943490
aI7102538
aI7623749
aI7987592
aI8161055
aI8310364
aI9006308
aI9156006
aI9749243
aI10032063
aI11656665
aI11747688
aI12100787
aI12259049
aI12288223
aI12626651
aI14386267
aI14419007
aI15440303
aI18006023
aI18312036
aI18322878
aI23985010
aI28601046
aI32211584
aI42055887
aI43670798
aI49028999
aI55065384
aI62861860
aI106637969
aI122111395
aI124491074
aI156232210
aI207210135
asI156498024
(lp24
I77303348
aI92691655
aI119601700
aI120281856
aI127492149
aI143677318
aI200505490
aI258746003
aI305655700
asI149111484
(lp25
I3776238
aI6414780
aI6453997
aI6874782
aI7227641
aI7659812
aI7963227
aI8442243
aI12695781
aI13271008
aI14470168
aI17331254
aI22432647
aI25561821
aI28199456
aI32614725
aI40734657
aI71774386
aI138591781
aI145876672
asI5552239
(lp26
I1764985
aI3771369
aI4256203
aI4403216
aI4726252
aI5142174
aI5881432
aI5883723
aI19120279
aI30161112
asI166942832
(lp27
I1213158
aI2749350
aI3272973
aI3771369
aI4793841
aI4870053
aI6279501
aI7937518
aI9006308
aI9937527
aI11656665
aI12100787
aI12293865
aI13260042
aI18006023
aI19176414
aI19364754
aI20347657
aI58819874
aI59385256
aI62861860
aI68793847
aI104102812
aI146831330
aI182308838
aI192288556
asI890995
(lp28
I29574097
asI208287867
(lp29
sI11759640
(lp30
I4058990
aI4250608
aI4462792
aI5789202
aI6470620
aI6937419
aI7607933
aI7867790
aI12626651
asI200505490
(lp31
I77303348
aI92691655
aI119601700
aI120281856
aI127492149
aI156498024
asI802965
(lp32
I867582
aI3085883
aI3171461
aI3355127
aI5740275
aI6337282
aI77303348
aI108093680
aI192019818
asI19079337
(lp33
I1764985
aI4726252
aI11300089
aI240986181
asI71774386
(lp34
I3776238
aI6453997
aI6874782
aI7227641
aI9372576
aI16363770
aI17940294
aI22432647
aI23369923
aI32614725
aI43639787
aI48868920
aI58572214
aI145876672
aI149111484
asI87720115
(lp35
I2035485
aI4005527
aI5289777
aI5840047
aI6291055
aI7659812
aI138591781
asI23369923
(lp36
I2528914
aI3776238
aI5008415
aI6453997
aI6874782
aI7659812
aI7851729
aI7963227
aI8442243
aI8859864
aI8968877
aI11333121
aI12283045
aI12293865
aI12695781
aI13271008
aI16363770
aI17797695
aI31689128
aI32614725
aI43639787
aI58572214
aI71774386
aI138591781
aI145876672
aI251183784
aI295653413
asI4462792
(lp37
I12662
aI823179
aI868976
aI1174012
aI1598595
aI1787388
aI2749350
aI3085883
aI3215452
aI3367292
aI3427306
aI3503953
aI3550880
aI3771369
aI3900810
aI3958533
aI3969942
aI4054594
aI4191691
aI4250608
aI4382085
aI4400240
aI4409303
aI4426091
aI4432381
aI4514007
aI4524732
aI4649435
aI4663095
aI4694550
aI4932215
aI5008415
aI5126991
aI5217151
aI5436168
aI5442351
aI5586807
aI5789202
aI6041426
aI6291055
aI6578008
aI6937419
aI6943490
aI7102538
aI7607933
aI7623749
aI7857693
aI7867790
aI7987592
aI8161055
aI8310364
aI9006308
aI9156006
aI9457865
aI10036756
aI11656665
aI11747688
aI11759640
aI12288223
aI12626651
aI14192742
aI14419007
aI15002138
aI15292161
aI23985010
aI32211584
aI42055887
aI67716191
aI134099929
aI313967476
asI9457865
(lp38
I823179
aI868976
aI2749350
aI3272973
aI3367292
aI3969942
aI4054594
aI4382085
aI4400240
aI4409303
aI4462792
aI4524732
aI4649435
aI4932215
aI5008415
aI5187985
aI5527490
aI5586807
aI6291055
aI6510344
aI6564065
aI6934525
aI6937419
aI7423881
aI7607933
aI7857693
aI8310364
aI9006308
aI9156006
aI11656665
aI11747688
aI12626651
aI15002138
aI16946464
aI35396020
aI42055887
aI65741215
aI67716191
aI134099929
aI138591781
asI99621068
(lp39
I1117603
asI132620494
(lp40
I867582
aI17645989
aI20204808
aI23416977
aI29114306
aI40976682
aI42836825
aI52147892
aI55483095
aI58819874
aI78068394
aI89032013
aI108219695
aI178274601
asI42055887
(lp41
I868976
aI881143
aI2749350
aI3272973
aI3367292
aI3503953
aI3550880
aI3932904
aI3969942
aI4250608
aI4382085
aI4400240
aI4403216
aI4462792
aI4663095
aI4932215
aI6934525
aI7423881
aI7851729
aI7867790
aI9006308
aI9156006
aI9422540
aI9457865
aI11656665
aI11747688
aI12626651
aI14192742
aI15002138
aI16946464
aI58611990
asI254162
(lp42
I3814400
aI3888786
aI244556803
asI4514007
(lp43
I823179
aI2724710
aI2955687
aI3085883
aI3503953
aI3900810
aI3932904
aI3958533
aI3969942
aI4054594
aI4191691
aI4338236
aI4400240
aI4403216
aI4409303
aI4432381
aI4462792
aI4524732
aI4646304
aI4649435
aI4932215
aI5008415
aI5187985
aI5442351
aI5527490
aI5789202
aI6041426
aI6470620
aI7423881
aI7607933
aI7987592
aI8310364
aI10032063
aI14419007
aI23985010
aI65741215
aI313967476
asI8859864
(lp44
I3401103
aI3776238
aI4005527
aI6453997
aI7227641
aI9372576
aI11333121
aI12695781
aI12729486
aI17797695
aI17940294
aI20306016
aI23369923
aI28199456
aI43639787
aI58572214
aI138591781
aI172903698
asI12288223
(lp45
I31300
aI44843
aI664118
aI823179
aI868976
aI1213158
aI1723039
aI1787388
aI2724710
aI2749350
aI3365230
aI3427306
aI3503953
aI3771369
aI3958533
aI4250608
aI4403216
aI4462792
aI4793841
aI4870053
aI4932215
aI5126991
aI5227712
aI6041426
aI6337587
aI6564065
aI7102538
aI7623749
aI7987592
aI9006308
aI9337624
aI9937527
aI10032063
aI11656665
aI11747688
aI11871890
aI12100787
aI12293865
aI13563399
aI14192742
aI14419007
aI15440303
aI16665204
aI18006023
aI18312036
aI18322878
aI18461556
aI19176414
aI19364754
aI20347657
aI23985010
aI27924385
aI38492261
aI43670798
aI49028999
aI50299418
aI54797773
aI61758963
aI62861860
aI68793847
aI106637969
aI122111395
aI124491074
aI134506574
aI182308838
aI207210135
asI6564065
(lp46
I664118
aI823179
aI868976
aI881143
aI1174012
aI1213158
aI1723039
aI1787388
aI2749350
aI3085883
aI3215452
aI3272973
aI3355127
aI3365230
aI3427306
aI3503953
aI3550880
aI3771369
aI3932904
aI3958533
aI4054594
aI4191691
aI4250608
aI4403216
aI4649435
aI4663095
aI4694550
aI4870053
aI4932215
aI5126991
aI5227712
aI5436168
aI5442351
aI5789202
aI6337587
aI7102538
aI7423881
aI7623749
aI7867790
aI7987592
aI8161055
aI9006308
aI9337624
aI9422540
aI9457865
aI9687459
aI9937527
aI10032063
aI11656665
aI11747688
aI11871890
aI12288223
aI13563399
aI14192742
aI14386267
aI18006023
aI18322878
aI19364754
aI20347657
aI27924385
aI28601046
aI38492261
aI40930566
aI43670798
aI44891108
aI49028999
aI54797773
aI58314153
aI58611990
aI59385256
aI61758963
aI62861860
aI68793847
aI104102812
aI106637969
aI122111395
aI124491074
aI134506574
aI156232210
aI169168450
aI182308838
aI207210135
aI238930773
aI313967476
asI12695781
(lp47
I6453997
aI7227641
aI7659812
aI8442243
aI8859864
aI11333121
aI12293865
aI13271008
aI14470168
aI17331254
aI22432647
aI23369923
aI25561821
aI32614725
aI40734657
aI145876672
aI149111484
aI190200296
aI295653413
asI108093680
(lp48
I802965
aI5740275
asI9115892
(lp49
I189157
aI3258201
aI3776238
aI5660622
aI11333121
aI12587306
aI15002138
aI17749727
aI136057724
aI196419633
asI7227641
(lp50
I3776238
aI4005527
aI6453997
aI7659812
aI8442243
aI8859864
aI9372576
aI11333121
aI12695781
aI12729486
aI13271008
aI14470168
aI16363770
aI17331254
aI17797695
aI17940294
aI20306016
aI22432647
aI25561821
aI28199456
aI32614725
aI40734657
aI46611076
aI48868920
aI58572214
aI71774386
aI145876672
aI149111484
aI172903698
asI16363770
(lp51
I3776238
aI4005527
aI7227641
aI9372576
aI11333121
aI12729486
aI17797695
aI17940294
aI20306016
aI22432647
aI23369923
aI28199456
aI43639787
aI58572214
aI71774386
aI172903698
aI190200296
asI7231750
(lp52
I4573639
aI6506760
aI6521733
aI7196475
aI8030915
aI8276010
aI8340376
aI8447058
aI10212959
aI18901770
aI23393604
aI40032128
aI266131475
asI55483095
(lp53
I160173
aI867582
aI1871958
aI3085883
aI3171461
aI3272973
aI3771369
aI4403216
aI4554266
aI5740275
aI6337282
aI8898445
aI10843436
aI11493685
aI11531487
aI12394895
aI17645989
aI18006023
aI20204808
aI23416977
aI26844369
aI29114306
aI40976682
aI41130644
aI41632399
aI42180880
aI49406612
aI58819874
aI67388399
aI76705031
aI77303348
aI78068394
aI89032013
aI93848406
aI103366032
aI108219695
aI132620494
aI139365724
aI149072396
aI178274601
aI181562984
aI192019818
asI241090828
(lp54
I823179
aI2749350
aI3272973
aI3771369
aI4246065
aI4403216
aI4870053
aI13563399
aI19176414
aI20347657
aI27924385
aI38492261
aI44891108
aI58819874
aI62861860
aI77303348
aI87076022
aI134506574
aI138379233
asI3272973
(lp55
I31300
aI44843
aI701588
aI823179
aI867582
aI868976
aI881143
aI1598595
aI1787388
aI2528914
aI2574116
aI2749350
aI2955687
aI3171461
aI3355127
aI3365230
aI3367292
aI3503953
aI3771369
aI3932904
aI3958533
aI3969942
aI4054594
aI4246065
aI4250608
aI4276532
aI4338236
aI4382085
aI4403216
aI4524732
aI4649435
aI4726252
aI4870053
aI4932215
aI4952928
aI5436168
aI5442351
aI5527490
aI5740275
aI6041426
aI6279501
aI6337282
aI6564065
aI6578008
aI7102538
aI7623749
aI7851729
aI7867790
aI7986433
aI7987592
aI8027201
aI8161055
aI8310364
aI8593180
aI8610956
aI8898445
aI9006308
aI9156006
aI9337624
aI9422540
aI9457865
aI9687459
aI9749243
aI9937527
aI10032063
aI10036756
aI11493685
aI11531487
aI11656665
aI11747688
aI11871890
aI12100787
aI12137949
aI12293865
aI12626651
aI13563399
aI14192742
aI14386267
aI14419007
aI15440303
aI17097306
aI17108389
aI17645989
aI18006023
aI18312036
aI18322878
aI19176414
aI19364754
aI20204808
aI20347657
aI23985010
aI28601046
aI29114306
aI36565016
aI40930566
aI42055887
aI42180880
aI44891108
aI49028999
aI49406612
aI50299418
aI54969615
aI55065384
aI55483095
aI58819874
aI61758963
aI62861860
aI65741215
aI67616271
aI68793847
aI76705031
aI77303348
aI78068394
aI87076022
aI93848406
aI104102812
aI108219695
aI124491074
aI134506574
aI139365724
aI145876672
aI146831330
aI149072396
aI166942832
aI169168450
aI178274601
aI178848778
aI182308838
aI192019818
aI240986181
aI241090828
asI42180880
(lp56
I867582
aI1871958
aI3171461
aI3272973
aI5740275
aI6337282
aI8898445
aI11493685
aI17645989
aI20204808
aI23416977
aI26844369
aI29114306
aI41130644
aI41632399
aI49406612
aI55483095
aI58819874
aI67388399
aI76705031
aI77303348
aI78068394
aI89032013
aI103366032
aI108219695
aI139365724
aI149072396
aI178274601
aI181562984
aI192019818
asI58611990
(lp57
I664118
aI823179
aI868976
aI1787388
aI2724710
aI2749350
aI3365230
aI3427306
aI3771369
aI3969942
aI4054594
aI4250608
aI4403216
aI4524732
aI4649435
aI4870053
aI4932215
aI5126991
aI5442351
aI5527490
aI6041426
aI6279501
aI6564065
aI7102538
aI8027201
aI8310364
aI9006308
aI10032063
aI11656665
aI12100787
aI12259049
aI12293865
aI13260042
aI14386267
aI15002138
aI18322878
aI19364754
aI28601046
aI42055887
aI43670798
aI49028999
aI50299418
aI55065384
aI59385256
aI105211516
aI122111395
aI124491074
asI14616
(lp58
I370777
aI477672
aI847599
aI1764985
aI2375091
aI8090090
aI136964713
aI175861271
asI7659812
(lp59
I299356
aI2035485
aI2528914
aI3401103
aI3771369
aI3776238
aI4005527
aI5346807
aI5840047
aI6414780
aI6453997
aI7227641
aI8442243
aI8990515
aI11333121
aI12695781
aI13271008
aI14470168
aI17331254
aI17940294
aI22432647
aI23369923
aI25561821
aI32614725
aI35779414
aI41621015
aI77512594
aI87720115
aI138591781
aI145876672
aI149111484
asI15860009
(lp60
I823179
aI3771369
aI4403216
aI7102538
aI9337624
aI12293865
aI14386267
aI19579914
aI28601046
aI33732565
aI43670798
aI44891108
aI62861860
aI124491074
aI145136254
aI182308838
asI40976682
(lp61
I160173
aI867582
aI3771369
aI4554266
aI5740275
aI6337282
aI8637963
aI8898445
aI11278906
aI11531487
aI12324233
aI12394895
aI17645989
aI23416977
aI30676970
aI32953418
aI40048366
aI41130644
aI42836825
aI52147892
aI55483095
aI67388399
aI76705031
aI77303348
aI78068394
aI89032013
aI103366032
aI132620494
aI139365724
aI149072396
aI152818311
aI160061102
aI178274601
aI179179412
aI181224253
aI226440450
asI4276532
(lp62
I3272973
aI19120279
aI240986181
asI11493685
(lp63
I867582
aI3171461
aI3272973
aI3771369
aI5740275
aI6337282
aI8090090
aI8898445
aI10843436
aI11531487
aI17645989
aI20204808
aI23416977
aI26844369
aI29114306
aI32953418
aI42180880
aI49406612
aI52147892
aI55483095
aI58819874
aI67388399
aI76705031
aI77303348
aI89032013
aI93848406
aI103366032
aI139365724
aI149072396
aI178274601
aI181562984
aI192019818
aI226440450
asI257376576
(lp64
I2749350
aI6279501
aI18006023
aI19364754
aI77303348
aI138379233
aI146831330
aI169168450
asI32614725
(lp65
I3776238
aI4870053
aI6453997
aI7227641
aI7659812
aI8442243
aI12695781
aI13271008
aI14470168
aI17331254
aI19176414
aI22432647
aI23369923
aI25561821
aI35396020
aI40734657
aI46611076
aI71774386
aI145876672
aI149111484
asI6279501
(lp66
I701588
aI2749350
aI3272973
aI3365230
aI3771369
aI3819351
aI4246065
aI4403216
aI4870053
aI4932215
aI6041426
aI8610956
aI9937527
aI11656665
aI12100787
aI12283045
aI12293865
aI13563399
aI14192742
aI18006023
aI19176414
aI19364754
aI20347657
aI28601046
aI30161112
aI40930566
aI44891108
aI50299418
aI58611990
aI58819874
aI61758963
aI68793847
aI77303348
aI104102812
aI134506574
aI145136254
aI146831330
aI166942832
aI257376576
asI20021588
(lp67
I12100787
aI18006023
aI19364754
aI53796935
asI299356
(lp68
I7659812
aI13271008
aI145876672
asI11747688
(lp69
I44843
aI823179
aI868976
aI881143
aI1787388
aI2528914
aI2724710
aI2749350
aI3085883
aI3272973
aI3355127
aI3367292
aI3427306
aI3503953
aI3550880
aI3771369
aI3958533
aI3969942
aI4054594
aI4058990
aI4250608
aI4338236
aI4382085
aI4400240
aI4403216
aI4462792
aI4524732
aI4646304
aI4649435
aI4663095
aI4932215
aI5126991
aI5436168
aI5442351
aI5586807
aI6041426
aI6564065
aI7102538
aI7423881
aI7867790
aI7987592
aI8310364
aI9006308
aI9156006
aI9337624
aI9422540
aI9457865
aI10032063
aI10036756
aI11656665
aI11871890
aI12100787
aI12288223
aI12626651
aI14192742
aI18312036
aI18322878
aI42055887
aI49028999
aI62861860
aI124491074
aI134099929
aI134506574
asI3365230
(lp70
I12662
aI31300
aI44843
aI823179
aI868976
aI881143
aI1174012
aI1213158
aI1598595
aI1723039
aI1787388
aI2528914
aI2574116
aI2749350
aI3085883
aI3215452
aI3272973
aI3355127
aI3427306
aI3503953
aI3771369
aI3958533
aI4246065
aI4250608
aI4403216
aI4649435
aI4793841
aI4870053
aI4932215
aI5126991
aI5227712
aI5436168
aI6041426
aI6279501
aI6337587
aI6564065
aI7102538
aI7623749
aI7851729
aI7867790
aI7937518
aI7987592
aI8027201
aI9006308
aI9337624
aI9422540
aI9687459
aI9749243
aI9937527
aI10032063
aI11656665
aI11871890
aI12100787
aI12288223
aI12293865
aI12821547
aI13260042
aI13563399
aI14192742
aI14386267
aI14419007
aI17108389
aI17518994
aI18006023
aI18312036
aI18322878
aI19364754
aI19579914
aI20347657
aI23985010
aI27924385
aI28601046
aI30676970
aI38492261
aI43670798
aI49028999
aI50299418
aI55065384
aI58611990
aI59385256
aI61758963
aI62861860
aI68793847
aI77303348
aI122111395
aI124491074
aI134506574
aI138591781
aI145876672
aI169168450
aI192288556
asI12662
(lp71
I44843
aI664118
aI823179
aI1213158
aI1787388
aI2724710
aI2749350
aI2955687
aI3085883
aI3365230
aI3503953
aI3771369
aI4338236
aI4462792
aI5187985
aI6291055
aI9006308
aI10032063
aI62861860
aI124491074
asI3367292
(lp72
I823179
aI868976
aI881143
aI2749350
aI3085883
aI3194187
aI3272973
aI3427306
aI3503953
aI3550880
aI3771369
aI3932904
aI3958533
aI3969942
aI4054594
aI4191691
aI4338236
aI4400240
aI4409303
aI4426091
aI4462792
aI4524732
aI4646304
aI4649435
aI4932215
aI4952928
aI5008415
aI5527490
aI5586807
aI5789202
aI6041426
aI6470620
aI6934525
aI6937419
aI7102538
aI7607933
aI7623749
aI7857693
aI8310364
aI9156006
aI9422540
aI9457865
aI11747688
aI12626651
aI12821547
aI14419007
aI15002138
aI17920427
aI18312036
aI18322878
aI38492261
aI42055887
aI65741215
aI124491074
aI134099929
aI313967476
asI8442243
(lp73
I4649435
aI7227641
aI7659812
aI8968877
aI12695781
aI13271008
aI14470168
aI17940294
aI22432647
aI23369923
aI32614725
aI40734657
aI145876672
aI149111484
aI295653413
asI7987592
(lp74
I823179
aI868976
aI881143
aI1723039
aI1787388
aI2574116
aI2749350
aI2955687
aI3085883
aI3215452
aI3272973
aI3365230
aI3427306
aI3503953
aI3550880
aI3900810
aI3958533
aI3969942
aI4054594
aI4191691
aI4250608
aI4382085
aI4403216
aI4409303
aI4462792
aI4514007
aI4524732
aI4646304
aI4649435
aI4663095
aI4694550
aI4870053
aI4932215
aI5008415
aI5126991
aI5187985
aI5436168
aI5442351
aI5527490
aI5789202
aI6564065
aI6578008
aI6934525
aI7102538
aI7423881
aI7607933
aI7623749
aI8161055
aI8310364
aI9687459
aI10032063
aI11656665
aI11747688
aI12100787
aI12288223
aI12626651
aI14192742
aI14419007
aI18312036
aI18322878
aI32211584
aI43670798
aI49028999
aI55065384
aI65741215
aI122111395
aI124491074
aI134099929
asI14732
(lp75
I7057
aI189157
aI1486122
aI4256203
aI4793841
asI12394895
(lp76
I160173
aI4554266
aI6337282
aI17645989
aI23416977
aI30676970
aI32953418
aI40976682
aI41130644
aI55483095
aI78068394
asI5187985
(lp77
I12662
aI823179
aI2955687
aI3085883
aI3194187
aI3427306
aI3503953
aI3900810
aI3969942
aI4054594
aI4191691
aI4338236
aI4400240
aI4432381
aI4514007
aI4524732
aI4646304
aI4649435
aI4932215
aI5008415
aI6041426
aI6291055
aI6937419
aI7423881
aI7607933
aI7987592
aI8161055
aI8310364
aI9457865
aI10032063
aI11871890
aI14419007
aI54969615
aI65542156
aI134099929
aI313967476
asI17518994
(lp78
I3365230
aI4649435
aI12100787
aI18006023
asI40048366
(lp79
I40976682
aI77303348
aI78068394
asI65741215
(lp80
I823179
aI881143
aI2749350
aI3085883
aI3272973
aI3367292
aI3427306
aI3550880
aI3932904
aI3958533
aI3969942
aI4054594
aI4191691
aI4289905
aI4514007
aI4524732
aI4646304
aI4649435
aI4952928
aI5008415
aI5084239
aI5442351
aI5527490
aI6470620
aI6934525
aI7102538
aI7607933
aI7623749
aI7851729
aI7857693
aI7867790
aI7987592
aI9457865
aI9687459
aI10032063
aI12100787
aI12626651
aI15002138
aI17920427
aI19579914
aI36565016
aI49028999
aI55065384
aI134099929
aI313967476
asI9687459
(lp81
I823179
aI881143
aI3272973
aI3365230
aI3771369
aI3958533
aI4250608
aI4289905
aI4870053
aI4952928
aI5442351
aI5527490
aI6564065
aI7102538
aI7623749
aI7987592
aI9422540
aI10032063
aI12100787
aI14419007
aI18006023
aI19364754
aI19579914
aI43670798
aI49028999
aI51440440
aI53803950
aI55065384
aI65741215
aI156232210
asI17645989
(lp82
I867582
aI3085883
aI3171461
aI3272973
aI3771369
aI5740275
aI6337282
aI8898445
aI10843436
aI11493685
aI11531487
aI12394895
aI20204808
aI23416977
aI26844369
aI29114306
aI40976682
aI41130644
aI41632399
aI42180880
aI49406612
aI55483095
aI58819874
aI67388399
aI76705031
aI77303348
aI78068394
aI93848406
aI103366032
aI108219695
aI132620494
aI139365724
aI149072396
aI178274601
aI181562984
aI192019818
aI226440450
asI2955687
(lp83
I12662
aI823179
aI2724710
aI2749350
aI3085883
aI3272973
aI3503953
aI3771369
aI3900810
aI3932904
aI3969942
aI4054594
aI4191691
aI4338236
aI4403216
aI4432381
aI4514007
aI4524732
aI4646304
aI4649435
aI4663095
aI4932215
aI5008415
aI5187985
aI6291055
aI7987592
aI11656665
aI23985010
aI313967476
asI31689128
(lp84
I5840047
aI11333121
aI23369923
aI145876672
asI17920427
(lp85
I2749350
aI3367292
aI3503953
aI3550880
aI3932904
aI3969942
aI4054594
aI4058990
aI4382085
aI4400240
aI4524732
aI4649435
aI4952928
aI5527490
aI5586807
aI6470620
aI6934525
aI7607933
aI7857693
aI12626651
aI65741215
aI114648456
asI160173
(lp86
I3771369
aI8637963
aI11278906
aI12324233
aI12394895
aI23416977
aI30676970
aI32953418
aI40976682
aI52147892
aI55483095
aI67388399
aI78068394
aI89032013
aI93848406
aI108219695
aI226440450
asI15440303
(lp87
I2574116
aI2724710
aI2749350
aI3272973
aI3771369
aI3958533
aI4403216
aI4870053
aI5126991
aI6041426
aI7102538
aI7937518
aI8501936
aI8593180
aI9749243
aI9937527
aI11656665
aI12100787
aI12137949
aI12288223
aI12293865
aI13563399
aI14192742
aI14419007
aI18006023
aI18312036
aI19364754
aI19579914
aI20347657
aI28601046
aI43670798
aI49028999
aI50299418
aI62861860
aI77303348
aI124491074
aI146831330
asI35396020
(lp88
I9457865
aI32614725
aI138591781
asI249479611
(lp89
I1174012
aI4403216
aI67616271
asI6414780
(lp90
I3401103
aI5346807
aI7659812
aI14470168
aI122111395
aI145876672
aI149111484
asI4573639
(lp91
I6389275
aI6521733
aI7196475
aI7231750
aI8276010
aI8447058
aI12733458
aI18901770
asI4256203
(lp92
I7057
aI14732
aI1764985
aI4403216
aI4726252
aI5142174
aI5552239
aI5883723
aI18461556
aI30161112
aI174908035
asI175573457
(lp93
I1117603
aI4403216
aI6008731
asI1117603
(lp94
I99621068
aI175573457
asI4649435
(lp95
I664118
aI823179
aI868976
aI1787388
aI2528914
aI2749350
aI2955687
aI3085883
aI3272973
aI3355127
aI3365230
aI3367292
aI3427306
aI3503953
aI3771369
aI3900810
aI3932904
aI3958533
aI3969942
aI4054594
aI4191691
aI4250608
aI4338236
aI4400240
aI4403216
aI4409303
aI4426091
aI4432381
aI4462792
aI4514007
aI4524732
aI4646304
aI4694550
aI4870053
aI4932215
aI4952928
aI5008415
aI5084239
aI5126991
aI5187985
aI5207688
aI5217151
aI5227712
aI5436168
aI5442351
aI5527490
aI5789202
aI5840047
aI6041426
aI6291055
aI6564065
aI6578008
aI6934525
aI6937419
aI6943490
aI7102538
aI7423881
aI7607933
aI7623749
aI7851729
aI7857693
aI7867790
aI7937518
aI7987592
aI8161055
aI8310364
aI8442243
aI9006308
aI9156006
aI9457865
aI10032063
aI10036756
aI11656665
aI11747688
aI12100787
aI12293865
aI12626651
aI14192742
aI14470168
aI17518994
aI17920427
aI18006023
aI18322878
aI23985010
aI32211584
aI36279687
aI36565016
aI49028999
aI55065384
aI58611990
aI65741215
aI122111395
aI145876672
aI156232210
aI295653413
aI313967476
asI477672
(lp96
I14616
aI370777
aI847599
aI1764985
aI2375091
aI8090090
aI136964713
aI175861271
asI8090090
(lp97
I14616
aI477672
aI847599
aI868976
aI1764985
aI4726252
aI5142174
aI11493685
aI30676970
aI136964713
aI138591781
asI881143
(lp98
I664118
aI823179
aI868976
aI1174012
aI1723039
aI2749350
aI3215452
aI3272973
aI3365230
aI3367292
aI3503953
aI3550880
aI3958533
aI4250608
aI4403216
aI4524732
aI4663095
aI4870053
aI4932215
aI5126991
aI6564065
aI7857693
aI7937518
aI7987592
aI8027201
aI8501936
aI9006308
aI9422540
aI9687459
aI9749243
aI11747688
aI12293865
aI13563399
aI14386267
aI14419007
aI18006023
aI18312036
aI19364754
aI20347657
aI27924385
aI28601046
aI38255473
aI38492261
aI40930566
aI42055887
aI43670798
aI49028999
aI50299418
aI54797773
aI55065384
aI62861860
aI65741215
aI67616271
aI104102812
aI122111395
aI124491074
aI138379233
aI141125660
aI146831330
aI182308838
asI1174012
(lp99
I44843
aI664118
aI775034
aI823179
aI868976
aI881143
aI1107242
aI1213158
aI1598595
aI1764985
aI2749350
aI3365230
aI3771369
aI4250608
aI4403216
aI4462792
aI4870053
aI5126991
aI5436168
aI5883723
aI6564065
aI7867790
aI9006308
aI9337624
aI9422540
aI12293865
aI12821547
aI14386267
aI17108389
aI28601046
aI30161112
aI38492261
aI67616271
aI67716191
aI122111395
aI136964713
aI249479611
asI4432381
(lp100
I664118
aI823179
aI2724710
aI2749350
aI2955687
aI3085883
aI3171461
aI3427306
aI3503953
aI3900810
aI3958533
aI3969942
aI4054594
aI4338236
aI4403216
aI4462792
aI4514007
aI4524732
aI4649435
aI4932215
aI5008415
aI5126991
aI5187985
aI6041426
aI6291055
aI6937419
aI7867790
aI8310364
aI9006308
aI10032063
aI11656665
aI12259049
aI14192742
aI23985010
aI55065384
asI149072396
(lp101
I867582
aI3171461
aI3272973
aI3771369
aI5740275
aI6337282
aI8637963
aI8898445
aI10843436
aI11278906
aI11493685
aI11531487
aI12324233
aI17645989
aI20204808
aI23416977
aI26844369
aI29114306
aI40976682
aI41130644
aI42180880
aI42836825
aI49406612
aI52147892
aI55483095
aI58819874
aI76705031
aI78068394
aI89032013
aI93848406
aI103366032
aI108219695
aI139365724
aI152818311
aI178274601
aI179179412
aI181224253
aI181562984
aI226440450
asI6337282
(lp102
I802965
aI867582
aI3085883
aI3171461
aI3272973
aI3771369
aI4554266
aI5740275
aI8898445
aI10843436
aI11493685
aI11531487
aI12394895
aI17645989
aI20204808
aI23416977
aI26844369
aI29114306
aI32953418
aI40976682
aI41130644
aI41632399
aI42180880
aI42836825
aI49406612
aI55483095
aI58819874
aI67388399
aI76705031
aI77303348
aI78068394
aI89032013
aI93848406
aI103366032
aI108219695
aI149072396
aI178274601
aI181562984
aI192019818
aI226440450
asI4694550
(lp103
I44843
aI664118
aI823179
aI868976
aI1723039
aI1787388
aI2749350
aI3085883
aI3355127
aI3427306
aI3503953
aI3550880
aI3771369
aI4054594
aI4191691
aI4250608
aI4382085
aI4400240
aI4409303
aI4426091
aI4462792
aI4524732
aI4646304
aI4649435
aI5126991
aI5436168
aI5442351
aI6041426
aI6564065
aI6578008
aI6934525
aI7607933
aI7623749
aI7987592
aI8161055
aI9006308
aI10032063
aI11656665
aI12626651
aI14192742
aI18322878
aI23985010
aI32211584
asI40133144
(lp104
I20215452
aI266131475
asI15002138
(lp105
I823179
aI868976
aI3367292
aI3503953
aI3932904
aI4400240
aI4462792
aI4524732
aI4932215
aI5084239
aI5586807
aI6470620
aI6934525
aI7102538
aI7607933
aI9115892
aI9457865
aI12626651
aI13260042
aI16946464
aI36565016
aI42055887
aI58611990
aI65741215
aI67716191
aI114648456
aI134099929
asI28199456
(lp106
I2528914
aI3401103
aI3776238
aI4005527
aI6453997
aI7227641
aI8859864
aI9372576
aI11333121
aI12729486
aI13271008
aI16363770
aI17797695
aI17940294
aI35779414
aI43639787
aI138591781
aI145876672
aI149111484
asI62861860
(lp107
I12662
aI664118
aI775034
aI823179
aI868976
aI881143
aI1213158
aI1723039
aI1787388
aI2724710
aI2749350
aI3085883
aI3215452
aI3272973
aI3365230
aI3503953
aI3771369
aI3958533
aI4246065
aI4403216
aI4793841
aI4870053
aI4932215
aI5126991
aI5436168
aI5442351
aI6337587
aI6564065
aI7102538
aI7913977
aI7937518
aI9006308
aI9337624
aI9422540
aI9937527
aI10032063
aI11656665
aI11747688
aI11871890
aI12100787
aI12288223
aI12293865
aI12821547
aI13563399
aI14192742
aI14386267
aI14419007
aI15440303
aI15860009
aI18006023
aI18312036
aI18322878
aI19176414
aI19364754
aI19579914
aI23985010
aI28601046
aI40930566
aI43670798
aI44891108
aI49028999
aI54797773
aI58314153
aI61758963
aI68793847
aI87076022
aI104102812
aI105211516
aI106637969
aI117558258
aI122111395
aI124491074
aI134506574
aI138379233
aI139080472
aI145136254
aI146831330
aI156232210
aI166942832
aI169168450
aI182308838
aI186648161
aI207210135
aI241090828
asI4246065
(lp108
I517119
aI868976
aI1213158
aI2749350
aI3272973
aI3365230
aI3771369
aI4338236
aI4403216
aI4870053
aI5436168
aI6279501
aI9937527
aI11656665
aI13563399
aI17097306
aI18006023
aI18322878
aI19364754
aI20347657
aI44891108
aI54797773
aI62861860
aI68793847
aI104102812
aI106637969
aI124491074
aI169168450
aI174908035
aI241090828
asI664118
(lp109
I12662
aI44843
aI775034
aI823179
aI868976
aI881143
aI1174012
aI1213158
aI1787388
aI2749350
aI3503953
aI3900810
aI4250608
aI4338236
aI4403216
aI4432381
aI4649435
aI4694550
aI4793841
aI4870053
aI5126991
aI5227712
aI5436168
aI6564065
aI8027201
aI9006308
aI9337624
aI10032063
aI12100787
aI12288223
aI12293865
aI13563399
aI14419007
aI18006023
aI19364754
aI28601046
aI50299418
aI58611990
aI62861860
aI122111395
aI124491074
aI146831330
aI207210135
asI11278906
(lp110
I160173
aI867582
aI8637963
aI12324233
aI23416977
aI30676970
aI32953418
aI40976682
aI41130644
aI42836825
aI52147892
aI78068394
aI89032013
aI149072396
aI152818311
aI181224253
aI226440450
asI4338236
(lp111
I12662
aI664118
aI823179
aI868976
aI2724710
aI2749350
aI2955687
aI3085883
aI3215452
aI3272973
aI3367292
aI3503953
aI3771369
aI3900810
aI4246065
aI4250608
aI4403216
aI4432381
aI4514007
aI4524732
aI4649435
aI4932215
aI5008415
aI5126991
aI5187985
aI6041426
aI6291055
aI8310364
aI10032063
aI11656665
aI11747688
aI23985010
aI36565016
asI17797695
(lp112
I3085883
aI3776238
aI4005527
aI7227641
aI8859864
aI11333121
aI16363770
aI17940294
aI20306016
aI23369923
aI28199456
asI922178
(lp113
sI31300
(lp114
I44843
aI1787388
aI2749350
aI3272973
aI3365230
aI12288223
aI18322878
asI36565016
(lp115
I823179
aI2724710
aI2749350
aI3272973
aI3503953
aI3771369
aI3969942
aI4338236
aI4382085
aI4649435
aI4932215
aI5126991
aI7851729
aI7867790
aI9006308
aI9156006
aI10032063
aI11656665
aI15002138
aI23985010
aI49028999
aI65741215
aI122111395
aI134506574
asI17097306
(lp116
I3171461
aI3272973
aI3771369
aI4246065
aI4870053
aI9937527
aI11656665
aI18006023
aI19364754
aI77303348
aI108219695
asI136964713
(lp117
I14616
aI477672
aI847599
aI850890
aI1174012
aI1764985
aI2375091
aI4726252
aI5142174
aI8090090
aI11300089
aI175861271
asI868976
(lp118
I44843
aI664118
aI701588
aI775034
aI823179
aI881143
aI1174012
aI1213158
aI1598595
aI1723039
aI1787388
aI2724710
aI2749350
aI3085883
aI3194187
aI3215452
aI3272973
aI3355127
aI3365230
aI3367292
aI3427306
aI3503953
aI3550880
aI3771369
aI3900810
aI3958533
aI3969942
aI4054594
aI4191691
aI4246065
aI4250608
aI4338236
aI4400240
aI4403216
aI4409303
aI4426091
aI4462792
aI4524732
aI4646304
aI4649435
aI4663095
aI4694550
aI4870053
aI4932215
aI5126991
aI5227712
aI5436168
aI5883723
aI6041426
aI6564065
aI6578008
aI6943490
aI7102538
aI7423881
aI7607933
aI7867790
aI7987592
aI8090090
aI8161055
aI8310364
aI8610956
aI9006308
aI9156006
aI9315103
aI9337624
aI9422540
aI9457865
aI9749243
aI10032063
aI11656665
aI11747688
aI11871890
aI12100787
aI12288223
aI12293865
aI12626651
aI13563399
aI14192742
aI14419007
aI15002138
aI15292161
aI16946464
aI17108389
aI18006023
aI18312036
aI18322878
aI19364754
aI19579914
aI20347657
aI28601046
aI36279687
aI42055887
aI43670798
aI49028999
aI50299418
aI55065384
aI58611990
aI62861860
aI67716191
aI77303348
aI122111395
aI124491074
aI134099929
aI134506574
aI174908035
aI313967476
asI16665204
(lp119
I823179
aI1723039
aI3771369
aI3958533
aI4403216
aI4870053
aI7623749
aI7937518
aI9749243
aI9937527
aI12100787
aI12288223
aI12293865
aI13563399
aI14386267
aI14419007
aI18006023
aI19176414
aI19364754
aI20347657
aI27924385
aI28601046
aI38492261
aI40930566
aI43670798
aI54797773
aI61758963
aI68793847
aI104102812
aI146831330
aI169168450
asI4932215
(lp120
I701588
aI823179
aI868976
aI881143
aI1723039
aI1787388
aI2528914
aI2724710
aI2749350
aI2955687
aI3085883
aI3171461
aI3194187
aI3215452
aI3272973
aI3355127
aI3365230
aI3367292
aI3427306
aI3503953
aI3550880
aI3771369
aI3958533
aI3969942
aI4054594
aI4058990
aI4250608
aI4338236
aI4382085
aI4400240
aI4403216
aI4432381
aI4462792
aI4514007
aI4524732
aI4649435
aI4663095
aI4870053
aI5008415
aI5084239
aI5126991
aI5187985
aI5436168
aI5442351
aI5586807
aI6041426
aI6279501
aI6564065
aI6943490
aI7102538
aI7423881
aI7607933
aI7623749
aI7851729
aI7867790
aI7987592
aI8027201
aI8161055
aI8310364
aI8610956
aI9006308
aI9156006
aI9337624
aI9422540
aI9457865
aI9937527
aI10032063
aI10036756
aI10843436
aI11656665
aI11747688
aI12100787
aI12288223
aI12293865
aI12626651
aI13563399
aI14192742
aI14419007
aI15002138
aI15292161
aI16946464
aI18006023
aI18312036
aI18322878
aI19176414
aI19364754
aI23985010
aI28601046
aI29114306
aI36565016
aI40930566
aI42055887
aI43670798
aI49028999
aI50299418
aI55065384
aI58611990
aI58819874
aI61758963
aI62861860
aI67716191
aI68793847
aI77303348
aI122111395
aI134506574
aI138379233
aI138591781
aI146831330
aI169168450
asI145136254
(lp121
I2724710
aI3771369
aI4403216
aI6279501
aI9337624
aI9937527
aI15860009
aI44891108
aI62861860
aI139080472
aI182308838
asI174908035
(lp122
I517119
aI701588
aI868976
aI1764985
aI3531513
aI4246065
aI4256203
aI4403216
aI5126991
aI5142174
aI5883723
aI20204808
aI30161112
aI138591781
asI46611076
(lp123
I7227641
aI13271008
aI22432647
aI32614725
asI152818311
(lp124
I8637963
aI11278906
aI32953418
aI40976682
aI41130644
aI42836825
aI78068394
aI89032013
aI149072396
aI181224253
aI226440450
asI41632399
(lp125
I867582
aI1871958
aI5740275
aI6337282
aI17645989
aI20204808
aI29114306
aI42180880
aI42836825
aI49406612
aI55483095
aI76705031
aI77303348
aI108219695
aI178274601
aI211783327
asI106637969
(lp126
I823179
aI3771369
aI4246065
aI4403216
aI4793841
aI4870053
aI6564065
aI7102538
aI9006308
aI9337624
aI9937527
aI12288223
aI12293865
aI14192742
aI18006023
aI19176414
aI20347657
aI27924385
aI28601046
aI43670798
aI61758963
aI62861860
aI68793847
aI77303348
aI124491074
aI134506574
aI138379233
aI139080472
aI182308838
aI207210135
asI49406612
(lp127
I867582
aI3171461
aI3272973
aI3771369
aI5740275
aI6337282
aI8898445
aI10843436
aI11493685
aI11531487
aI17645989
aI20204808
aI29114306
aI41632399
aI42180880
aI55483095
aI58819874
aI76705031
aI93848406
aI103366032
aI108219695
aI149072396
aI181562984
aI192019818
asI1723039
(lp128
I823179
aI868976
aI881143
aI1213158
aI2749350
aI3365230
aI3503953
aI3771369
aI3958533
aI4250608
aI4403216
aI4694550
aI4870053
aI4932215
aI5436168
aI6564065
aI7102538
aI7913977
aI7937518
aI7987592
aI9337624
aI9422540
aI9937527
aI12288223
aI12293865
aI13563399
aI14192742
aI14386267
aI16665204
aI18006023
aI19364754
aI20347657
aI27924385
aI28601046
aI30676970
aI38492261
aI40930566
aI43670798
aI61758963
aI62861860
aI68793847
aI141125660
aI156232210
aI169168450
aI238930773
asI5601962
(lp129
I189157
aI3258201
aI3776238
aI5289777
aI5660622
aI6934525
aI12587306
aI17749727
aI49903583
aI53284488
aI136057724
asI8968877
(lp130
I3776238
aI8442243
aI23369923
aI138591781
asI8501936
(lp131
I823179
aI881143
aI12821547
aI14419007
aI15440303
aI18312036
asI4524732
(lp132
I868976
aI881143
aI1107242
aI2749350
aI2955687
aI3085883
aI3194187
aI3215452
aI3272973
aI3367292
aI3427306
aI3503953
aI3550880
aI3771369
aI3932904
aI3958533
aI3969942
aI4054594
aI4058990
aI4191691
aI4338236
aI4382085
aI4400240
aI4403216
aI4409303
aI4432381
aI4462792
aI4514007
aI4646304
aI4649435
aI4663095
aI4694550
aI4932215
aI4952928
aI5008415
aI5084239
aI5126991
aI5187985
aI5217151
aI5442351
aI5527490
aI5586807
aI5789202
aI6041426
aI6470620
aI6934525
aI6937419
aI7102538
aI7607933
aI7623749
aI7857693
aI7987592
aI8310364
aI9156006
aI9457865
aI10032063
aI11747688
aI12626651
aI14192742
aI14419007
aI15002138
aI17920427
aI23985010
aI58611990
aI65741215
aI122111395
aI134099929
aI313967476
asI8030915
(lp133
I6506760
aI7196475
aI7231750
aI8447058
asI27060933
(lp134
sI3359439
(lp135
I818307
aI1486122
aI3370622
asI28601046
(lp136
I664118
aI823179
aI868976
aI881143
aI1174012
aI1213158
aI1723039
aI1787388
aI2528914
aI2574116
aI2724710
aI2749350
aI3272973
aI3365230
aI3771369
aI3958533
aI4403216
aI4793841
aI4870053
aI4932215
aI5126991
aI5436168
aI6041426
aI6279501
aI6564065
aI7102538
aI9006308
aI9337624
aI11656665
aI11871890
aI12100787
aI12293865
aI12821547
aI13260042
aI13563399
aI14192742
aI14386267
aI14419007
aI15440303
aI15860009
aI16665204
aI18006023
aI18312036
aI18322878
aI19176414
aI19364754
aI19579914
aI20347657
aI27924385
aI33732565
aI38492261
aI40930566
aI43670798
aI44891108
aI49028999
aI50299418
aI54797773
aI58611990
aI58819874
aI59385256
aI61758963
aI62861860
aI67616271
aI68793847
aI104102812
aI106637969
aI117558258
aI122111395
aI124491074
aI134506574
aI138379233
aI139080472
aI141125660
aI146831330
aI169168450
aI182308838
aI207210135
asI18645719
(lp137
I3427306
aI5346807
aI138591781
aI295653413
asI12626651
(lp138
I823179
aI868976
aI2749350
aI3194187
aI3272973
aI3367292
aI3503953
aI3550880
aI3932904
aI3958533
aI3969942
aI4054594
aI4191691
aI4250608
aI4400240
aI4409303
aI4426091
aI4462792
aI4524732
aI4646304
aI4649435
aI4694550
aI4932215
aI4952928
aI5084239
aI5217151
aI5527490
aI5586807
aI5789202
aI6470620
aI6934525
aI6937419
aI7607933
aI7623749
aI7857693
aI7987592
aI8161055
aI8310364
aI9156006
aI9457865
aI10032063
aI11747688
aI11759640
aI14192742
aI15002138
aI17920427
aI42055887
aI65741215
aI114648456
aI134099929
aI156232210
asI25561821
(lp139
I6453997
aI7227641
aI7659812
aI12695781
aI14470168
aI17331254
aI22432647
aI32614725
aI40734657
aI145876672
aI149111484
asI189157
(lp140
I14732
aI1486122
aI3258201
aI3776238
aI5601962
aI5660622
aI6934525
aI9115892
aI11333121
aI12587306
aI17749727
aI20306016
aI49903583
aI53284488
aI136057724
aI190200296
aI196419633
asI1213158
(lp141
I12662
aI44843
aI579608
aI664118
aI701588
aI775034
aI823179
aI850890
aI868976
aI1107242
aI1174012
aI1598595
aI1723039
aI1787388
aI2035485
aI2528914
aI2574116
aI2724710
aI2749350
aI3365230
aI3503953
aI3771369
aI4246065
aI4250608
aI4403216
aI4793841
aI4870053
aI5126991
aI5436168
aI6564065
aI7102538
aI7937518
aI9006308
aI9337624
aI9422540
aI9937527
aI10032063
aI11656665
aI11871890
aI12100787
aI12288223
aI12293865
aI12729486
aI13260042
aI13563399
aI17108389
aI18006023
aI18322878
aI19364754
aI28601046
aI35779414
aI50299418
aI62861860
aI72034399
aI77303348
aI124491074
aI134506574
aI146831330
aI166942832
asI3932904
(lp142
I2528914
aI2749350
aI2955687
aI3085883
aI3215452
aI3272973
aI3367292
aI3427306
aI3503953
aI3550880
aI3958533
aI3969942
aI4054594
aI4191691
aI4382085
aI4514007
aI4524732
aI4649435
aI4952928
aI5008415
aI5126991
aI5527490
aI6564065
aI7423881
aI7607933
aI7851729
aI7857693
aI7867790
aI8310364
aI9006308
aI10032063
aI12626651
aI15002138
aI17920427
aI42055887
aI54969615
aI65741215
aI313967476
asI6453997
(lp143
I3776238
aI4870053
aI6874782
aI7227641
aI7659812
aI8859864
aI12695781
aI13271008
aI14470168
aI17331254
aI20306016
aI22432647
aI23369923
aI25561821
aI28199456
aI32614725
aI35779414
aI40734657
aI40930566
aI41621015
aI43639787
aI71774386
aI145876672
aI149111484
aI295653413
asI889592
(lp144
sI3531513
(lp145
I1764985
aI5142174
aI5227712
aI138591781
aI174908035
asI9749243
(lp146
I823179
aI868976
aI881143
aI2574116
aI2724710
aI3272973
aI3365230
aI3503953
aI3771369
aI3958533
aI4403216
aI4870053
aI5126991
aI7102538
aI7937518
aI8027201
aI9422540
aI10032063
aI11656665
aI12293865
aI12821547
aI13822998
aI14192742
aI14386267
aI14419007
aI15440303
aI16665204
aI18006023
aI18312036
aI19579914
aI20347657
aI43670798
aI49028999
aI50299418
aI104102812
aI122111395
aI124491074
aI182308838
asI120281856
(lp147
I853754
aI77303348
aI92691655
aI119601700
aI127492149
aI143677318
aI156498024
aI200505490
aI305655700
asI6943490
(lp148
I868976
aI3969942
aI4462792
aI4649435
aI4932215
aI5586807
aI14192742
asI5436168
(lp149
I44843
aI664118
aI775034
aI823179
aI868976
aI1174012
aI1213158
aI1723039
aI1787388
aI2528914
aI2749350
aI3215452
aI3272973
aI3355127
aI3365230
aI3427306
aI3503953
aI3771369
aI3969942
aI4191691
aI4246065
aI4250608
aI4403216
aI4462792
aI4646304
aI4649435
aI4694550
aI4932215
aI5126991
aI5227712
aI6041426
aI6564065
aI7987592
aI8027201
aI8310364
aI9006308
aI9422540
aI11656665
aI11747688
aI11871890
aI12100787
aI13563399
aI14386267
aI17108389
aI18006023
aI18322878
aI20347657
aI28601046
aI36279687
aI50299418
aI62861860
aI124491074
aI134506574
aI313967476
asI20347657
(lp150
I701588
aI823179
aI868976
aI881143
aI1598595
aI1723039
aI2574116
aI2749350
aI3272973
aI3365230
aI3771369
aI4246065
aI4403216
aI4870053
aI5436168
aI6041426
aI6279501
aI6564065
aI7937518
aI8027201
aI8610956
aI9422540
aI9749243
aI9937527
aI11656665
aI12100787
aI12288223
aI12293865
aI13260042
aI13563399
aI14386267
aI14419007
aI15440303
aI16665204
aI18006023
aI18322878
aI19364754
aI19579914
aI27924385
aI28601046
aI38492261
aI40930566
aI43670798
aI44891108
aI50299418
aI54797773
aI58819874
aI61758963
aI68793847
aI77303348
aI104102812
aI106637969
aI122111395
aI124491074
aI138379233
aI146831330
aI166942832
aI169168450
aI178848778
aI192288556
aI238930773
aI241090828
asI18901770
(lp151
I4573639
aI6506760
aI6521733
aI7196475
aI7231750
aI8276010
aI8340376
aI40032128
asI1598595
(lp152
I775034
aI868976
aI1107242
aI1174012
aI1213158
aI1764985
aI1787388
aI2749350
aI3272973
aI3365230
aI4403216
aI4462792
aI5126991
aI8310364
aI9006308
aI9337624
aI11656665
aI14386267
aI17108389
aI18312036
aI20347657
aI49028999
asI9337624
(lp153
I44843
aI664118
aI823179
aI868976
aI1174012
aI1213158
aI1598595
aI1723039
aI1787388
aI2749350
aI3272973
aI3365230
aI3771369
aI3958533
aI3969942
aI4250608
aI4403216
aI4793841
aI4870053
aI4932215
aI5227712
aI6041426
aI6564065
aI7102538
aI7867790
aI9006308
aI11656665
aI11747688
aI12288223
aI12293865
aI12821547
aI13563399
aI14386267
aI14419007
aI15860009
aI17108389
aI18312036
aI18322878
aI19176414
aI19364754
aI19579914
aI27924385
aI28601046
aI38492261
aI40930566
aI44891108
aI49028999
aI62861860
aI68793847
aI106637969
aI122111395
aI124491074
aI134506574
aI138379233
aI139080472
aI145136254
aI146831330
aI182308838
asI9315103
(lp154
I868976
aI2749350
aI4403216
asI55065384
(lp155
I823179
aI868976
aI881143
aI2749350
aI3215452
aI3272973
aI3365230
aI3427306
aI3503953
aI3550880
aI3771369
aI3958533
aI4289905
aI4432381
aI4649435
aI4870053
aI4932215
aI5207688
aI5442351
aI5527490
aI6578008
aI7102538
aI7623749
aI7913977
aI7987592
aI8027201
aI9422540
aI9687459
aI10032063
aI12100787
aI12293865
aI13260042
aI14192742
aI14419007
aI18006023
aI18312036
aI19364754
aI19579914
aI36279687
aI49028999
aI50299418
aI53803950
aI58611990
aI59385256
aI65741215
aI122111395
aI156232210
asI5442351
(lp156
I823179
aI2749350
aI3085883
aI3215452
aI3272973
aI3427306
aI3503953
aI3550880
aI3958533
aI4462792
aI4514007
aI4524732
aI4646304
aI4649435
aI4694550
aI4932215
aI5008415
aI5527490
aI6564065
aI6934525
aI7102538
aI7623749
aI7987592
aI8161055
aI8310364
aI9687459
aI10032063
aI11656665
aI11747688
aI14192742
aI23985010
aI49028999
aI55065384
aI58611990
aI62861860
aI65741215
aI122111395
aI313967476
asI51440440
(lp157
I9687459
aI10036756
asI86958906
(lp158
sI181224253
(lp159
I867582
aI3771369
aI8898445
aI11278906
aI23416977
aI40976682
aI42836825
aI52147892
aI78068394
aI89032013
aI149072396
aI152818311
aI179179412
aI181287161
asI18522943
(lp160
I4403216
aI5126991
aI16946464
aI67716191
asI122111395
(lp161
I664118
aI823179
aI868976
aI881143
aI1174012
aI2574116
aI2724710
aI2749350
aI3085883
aI3365230
aI3427306
aI3771369
aI3958533
aI4054594
aI4250608
aI4289905
aI4524732
aI4649435
aI4870053
aI4932215
aI5126991
aI5227712
aI5442351
aI5740275
aI6414780
aI6564065
aI6578008
aI7102538
aI7623749
aI7937518
aI7987592
aI8027201
aI9337624
aI9749243
aI10032063
aI10036756
aI11656665
aI12100787
aI12288223
aI12293865
aI13563399
aI14192742
aI14386267
aI14419007
aI18006023
aI19364754
aI20347657
aI28601046
aI36565016
aI38255473
aI43670798
aI49028999
aI50299418
aI55065384
aI58611990
aI62861860
aI124491074
aI145876672
aI156232210
aI192288556
asI9304910
(lp162
I29574097
asI5126991
(lp163
I517119
aI664118
aI701588
aI775034
aI823179
aI868976
aI881143
aI1174012
aI1213158
aI1598595
aI1787388
aI2528914
aI2574116
aI2724710
aI2749350
aI3215452
aI3355127
aI3365230
aI3427306
aI3503953
aI3550880
aI3771369
aI3932904
aI3958533
aI3969942
aI4054594
aI4058990
aI4191691
aI4250608
aI4338236
aI4400240
aI4403216
aI4432381
aI4462792
aI4524732
aI4649435
aI4663095
aI4694550
aI4793841
aI4870053
aI4932215
aI4952928
aI5227712
aI5436168
aI5527490
aI5586807
aI5883723
aI6041426
aI6337587
aI6564065
aI7102538
aI7607933
aI7851729
aI7867790
aI7913977
aI7937518
aI7987592
aI8027201
aI8161055
aI8310364
aI9006308
aI9156006
aI9422540
aI9749243
aI10032063
aI10036756
aI11656665
aI11747688
aI12100787
aI12288223
aI12293865
aI12821547
aI13563399
aI14192742
aI14386267
aI14419007
aI15440303
aI17108389
aI18006023
aI18312036
aI18322878
aI18522943
aI19364754
aI27924385
aI28601046
aI36565016
aI43670798
aI49028999
aI50299418
aI58611990
aI59385256
aI62861860
aI67716191
aI68793847
aI77303348
aI105211516
aI122111395
aI124491074
aI134099929
aI134506574
aI174908035
aI313967476
asI238930773
(lp164
I1723039
aI6564065
aI13563399
aI14386267
aI18312036
aI20347657
asI93848406
(lp165
I160173
aI867582
aI3171461
aI3272973
aI3771369
aI5740275
aI6337282
aI8898445
aI11493685
aI11531487
aI17645989
aI20204808
aI29114306
aI49406612
aI55483095
aI67388399
aI77303348
aI78068394
aI103366032
aI108219695
aI149072396
aI178274601
asI42836825
(lp166
I867582
aI6337282
aI8637963
aI8898445
aI10843436
aI11278906
aI11531487
aI29114306
aI32953418
aI40976682
aI41130644
aI41632399
aI52147892
aI58819874
aI78068394
aI89032013
aI132620494
aI139365724
aI149072396
aI152818311
aI160061102
aI179179412
aI181224253
aI226440450
asI4952928
(lp167
I823179
aI2749350
aI3215452
aI3272973
aI3367292
aI3427306
aI3503953
aI3550880
aI3932904
aI3969942
aI4054594
aI4058990
aI4191691
aI4403216
aI4524732
aI4649435
aI5008415
aI5126991
aI5527490
aI6470620
aI6934525
aI7607933
aI7623749
aI7851729
aI7857693
aI7867790
aI9006308
aI9687459
aI11656665
aI12626651
aI17920427
aI65741215
aI77512594
aI313967476
asI18312036
(lp168
I823179
aI868976
aI881143
aI1598595
aI2749350
aI3272973
aI3365230
aI3367292
aI3427306
aI3503953
aI3771369
aI3958533
aI3969942
aI4403216
aI4870053
aI4932215
aI5126991
aI6041426
aI7102538
aI7987592
aI8027201
aI8501936
aI9337624
aI9422540
aI9749243
aI10032063
aI11656665
aI11747688
aI12100787
aI12288223
aI12293865
aI12821547
aI13563399
aI13822998
aI14192742
aI14386267
aI14419007
aI15440303
aI17108389
aI18006023
aI18322878
aI19364754
aI19579914
aI28601046
aI43670798
aI49028999
aI55065384
aI62861860
aI124491074
aI238930773
asI2724710
(lp169
I12662
aI44843
aI823179
aI868976
aI1213158
aI1787388
aI2528914
aI2749350
aI2955687
aI3215452
aI3503953
aI3771369
aI3958533
aI4191691
aI4338236
aI4403216
aI4432381
aI4514007
aI4793841
aI4870053
aI4932215
aI5126991
aI7102538
aI7623749
aI7867790
aI7937518
aI8027201
aI8161055
aI8310364
aI9006308
aI9422540
aI9749243
aI9937527
aI10032063
aI11656665
aI11747688
aI12100787
aI12288223
aI12293865
aI13563399
aI14192742
aI15440303
aI17108389
aI18006023
aI18322878
aI19364754
aI27924385
aI28601046
aI36565016
aI38492261
aI43670798
aI44891108
aI50299418
aI58611990
aI62861860
aI122111395
aI145136254
aI313967476
asI23416977
(lp170
I160173
aI867582
aI3171461
aI3771369
aI4554266
aI5740275
aI6337282
aI8637963
aI8898445
aI10843436
aI11278906
aI11493685
aI11531487
aI12324233
aI12394895
aI17645989
aI26844369
aI29114306
aI30676970
aI32953418
aI40976682
aI41130644
aI42180880
aI52147892
aI55483095
aI58819874
aI67388399
aI78068394
aI89032013
aI108219695
aI132620494
aI149072396
aI160061102
aI178274601
aI179179412
aI181224253
aI226440450
asI190200296
(lp171
I189157
aI3776238
aI5289777
aI5660622
aI6291055
aI8990515
aI11333121
aI12587306
aI12695781
aI16363770
aI17749727
aI17940294
aI20306016
aI43639787
aI172903698
aI196419633
asI23985010
(lp172
I823179
aI2955687
aI3085883
aI3215452
aI3272973
aI3355127
aI3365230
aI3427306
aI3503953
aI4054594
aI4338236
aI4403216
aI4432381
aI4462792
aI4514007
aI4524732
aI4649435
aI4694550
aI4932215
aI5442351
aI5527490
aI5789202
aI6291055
aI6578008
aI7102538
aI7623749
aI7851729
aI7867790
aI8161055
aI10032063
aI11656665
aI12288223
aI14192742
aI36565016
aI49028999
aI62861860
asI18461556
(lp173
I4256203
aI4403216
aI5883723
aI12288223
aI30161112
asI12587306
(lp174
I189157
aI3258201
aI3776238
aI5601962
aI5660622
aI6934525
aI9115892
aI11333121
aI17749727
aI20306016
aI49903583
aI53284488
aI136057724
aI190200296
aI196419633
asI136057724
(lp175
I189157
aI3258201
aI3776238
aI5289777
aI5601962
aI5660622
aI9115892
aI12587306
aI15058754
aI17749727
aI20306016
aI53284488
aI196419633
asI5217151
(lp176
I2749350
aI3503953
aI3900810
aI4054594
aI4382085
aI4409303
aI4462792
aI4524732
aI4649435
aI5084239
aI6578008
aI6937419
aI7423881
aI11656665
aI12626651
asI6521733
(lp177
I4573639
aI6506760
aI7196475
aI7231750
aI18901770
asI22432647
(lp178
I6453997
aI7227641
aI7659812
aI8442243
aI12695781
aI13271008
aI16363770
aI17331254
aI25561821
aI32614725
aI40734657
aI41621015
aI46611076
aI48868920
aI71774386
aI138591781
aI149111484
asI7057
(lp179
I14732
aI4256203
aI4403216
asI19364754
(lp180
I44843
aI664118
aI701588
aI823179
aI868976
aI881143
aI1213158
aI1723039
aI1787388
aI2528914
aI2574116
aI2724710
aI2749350
aI3272973
aI3365230
aI3771369
aI3958533
aI3969942
aI4005527
aI4246065
aI4403216
aI4793841
aI4870053
aI4932215
aI5126991
aI6041426
aI6279501
aI6564065
aI7102538
aI7937518
aI8027201
aI8610956
aI9006308
aI9337624
aI9422540
aI9687459
aI9937527
aI10032063
aI11656665
aI12100787
aI12259049
aI12288223
aI12293865
aI13260042
aI13563399
aI13822998
aI14386267
aI14419007
aI15440303
aI16665204
aI17097306
aI18006023
aI18312036
aI18322878
aI19176414
aI19579914
aI20021588
aI20347657
aI27924385
aI28601046
aI38492261
aI40930566
aI43670798
aI44891108
aI49028999
aI50299418
aI53796935
aI55065384
aI58611990
aI58819874
aI59385256
aI61758963
aI62861860
aI67616271
aI68793847
aI76705031
aI77303348
aI104102812
aI105211516
aI122111395
aI124491074
aI134506574
aI138591781
aI139365724
aI146831330
aI166942832
aI169168450
aI182308838
aI192288556
aI257376576
asI3969942
(lp181
I823179
aI868976
aI1787388
aI2574116
aI2749350
aI2955687
aI3085883
aI3194187
aI3215452
aI3272973
aI3367292
aI3427306
aI3503953
aI3550880
aI3771369
aI3900810
aI3932904
aI3958533
aI4054594
aI4191691
aI4382085
aI4400240
aI4403216
aI4432381
aI4462792
aI4514007
aI4524732
aI4649435
aI4663095
aI4932215
aI4952928
aI5008415
aI5126991
aI5187985
aI5207688
aI5436168
aI5527490
aI6041426
aI6578008
aI6943490
aI7102538
aI7423881
aI7607933
aI7851729
aI7857693
aI7867790
aI7987592
aI8161055
aI8310364
aI9006308
aI9156006
aI9337624
aI9457865
aI10032063
aI10036756
aI11656665
aI11747688
aI12100787
aI12626651
aI14192742
aI14419007
aI17920427
aI18006023
aI18312036
aI18322878
aI19364754
aI36565016
aI42055887
aI43670798
aI49028999
aI54969615
aI58611990
aI65542156
aI65741215
aI105211516
aI124491074
aI134099929
aI134506574
aI138591781
aI295653413
aI313967476
asI8340376
(lp182
I7196475
aI7231750
aI8447058
aI18901770
aI23393604
aI40032128
asI66188187
(lp183
sI104102812
(lp184
I823179
aI881143
aI2749350
aI3272973
aI3771369
aI4246065
aI4403216
aI4870053
aI6279501
aI6564065
aI9006308
aI9749243
aI9937527
aI11656665
aI13563399
aI16665204
aI18006023
aI19176414
aI19364754
aI20347657
aI28601046
aI44891108
aI54797773
aI58819874
aI61758963
aI62861860
aI67616271
aI68793847
aI77303348
aI117558258
aI124491074
aI134506574
aI138379233
aI146831330
aI166942832
aI169168450
aI182308838
aI207210135
asI9372576
(lp185
I3776238
aI4005527
aI6874782
aI7227641
aI8859864
aI11333121
aI12729486
aI16363770
aI17940294
aI20306016
aI28199456
aI43639787
aI58572214
aI71774386
aI77512594
aI145876672
aI172903698
aI295653413
asI2749350
(lp186
I12662
aI31300
aI44843
aI664118
aI701588
aI775034
aI823179
aI868976
aI881143
aI1174012
aI1213158
aI1598595
aI1723039
aI1787388
aI2528914
aI2574116
aI2724710
aI2955687
aI3085883
aI3194187
aI3215452
aI3272973
aI3365230
aI3367292
aI3427306
aI3503953
aI3550880
aI3771369
aI3819351
aI3900810
aI3932904
aI3958533
aI3969942
aI4054594
aI4191691
aI4246065
aI4250608
aI4338236
aI4382085
aI4400240
aI4403216
aI4409303
aI4426091
aI4432381
aI4462792
aI4524732
aI4646304
aI4649435
aI4663095
aI4694550
aI4793841
aI4870053
aI4932215
aI4952928
aI5008415
aI5126991
aI5217151
aI5227712
aI5436168
aI5442351
aI5527490
aI5586807
aI6041426
aI6279501
aI6337587
aI6564065
aI6578008
aI7102538
aI7423881
aI7607933
aI7623749
aI7851729
aI7857693
aI7867790
aI7987592
aI8027201
aI8161055
aI8310364
aI9006308
aI9156006
aI9315103
aI9337624
aI9422540
aI9457865
aI9937527
aI10032063
aI10036756
aI11656665
aI11747688
aI11871890
aI12100787
aI12283045
aI12288223
aI12293865
aI12626651
aI13260042
aI13563399
aI14192742
aI14386267
aI14419007
aI15440303
aI17920427
aI18006023
aI18312036
aI18322878
aI19176414
aI19364754
aI19579914
aI20347657
aI27924385
aI28601046
aI32211584
aI36565016
aI38255473
aI38492261
aI40930566
aI42055887
aI43670798
aI44891108
aI49028999
aI50299418
aI53803950
aI55065384
aI58611990
aI58819874
aI59385256
aI61758963
aI62861860
aI65741215
aI68793847
aI77303348
aI104102812
aI105211516
aI122111395
aI124491074
aI134099929
aI134506574
aI138591781
aI146831330
aI156232210
aI166942832
aI169168450
aI241090828
aI257376576
aI313967476
asI10032063
(lp187
I12662
aI44843
aI664118
aI823179
aI868976
aI1213158
aI1787388
aI2528914
aI2574116
aI2724710
aI2749350
aI3085883
aI3215452
aI3272973
aI3355127
aI3365230
aI3427306
aI3503953
aI3550880
aI3771369
aI3932904
aI3958533
aI3969942
aI4054594
aI4058990
aI4191691
aI4250608
aI4289905
aI4338236
aI4382085
aI4403216
aI4432381
aI4514007
aI4524732
aI4646304
aI4649435
aI4694550
aI4870053
aI4932215
aI5008415
aI5126991
aI5187985
aI5227712
aI5442351
aI5586807
aI6337587
aI6564065
aI6578008
aI7102538
aI7607933
aI7623749
aI7851729
aI7857693
aI7987592
aI8161055
aI8310364
aI9006308
aI9156006
aI9422540
aI9687459
aI9749243
aI11656665
aI11747688
aI11871890
aI12100787
aI12288223
aI12293865
aI12626651
aI14192742
aI14419007
aI18006023
aI18312036
aI18322878
aI19364754
aI23985010
aI36565016
aI38255473
aI43670798
aI49028999
aI55065384
aI58611990
aI62861860
aI65741215
aI67616271
aI122111395
aI124491074
aI134099929
aI182308838
aI313967476
asI850890
(lp188
I579608
aI701588
aI1213158
aI1787388
aI4793841
aI18322878
aI35779414
aI72034399
aI136964713
asI5346807
(lp189
I4403216
aI6414780
aI6874782
aI7659812
aI7867790
aI18645719
aI35779414
aI295653413
asI29574097
(lp190
I890995
aI9304910
asI6470620
(lp191
I3085883
aI3194187
aI3367292
aI3503953
aI3550880
aI4054594
aI4191691
aI4409303
aI4514007
aI4524732
aI4646304
aI4952928
aI5008415
aI5084239
aI5527490
aI5586807
aI6934525
aI7607933
aI7857693
aI8310364
aI9156006
aI11759640
aI12626651
aI15002138
aI17920427
aI65741215
aI313967476
asI19176414
(lp192
I701588
aI823179
aI1787388
aI2749350
aI3272973
aI3771369
aI4870053
aI4932215
aI6279501
aI9337624
aI9937527
aI11656665
aI12288223
aI13563399
aI16665204
aI18322878
aI19364754
aI27924385
aI28601046
aI32614725
aI38492261
aI40930566
aI58819874
aI61758963
aI62861860
aI68793847
aI104102812
aI106637969
aI166942832
aI241090828
asI4428769
(lp193
sI44891108
(lp194
I823179
aI1787388
aI2724710
aI2749350
aI3272973
aI3771369
aI4246065
aI4403216
aI4793841
aI4870053
aI6279501
aI6564065
aI7102538
aI7937518
aI9006308
aI9337624
aI9937527
aI11656665
aI12100787
aI13563399
aI15860009
aI18006023
aI19364754
aI20347657
aI28601046
aI38492261
aI43670798
aI58819874
aI62861860
aI77303348
aI104102812
aI124491074
aI134506574
aI138379233
aI139080472
aI141125660
aI145136254
aI146831330
aI182308838
aI241090828
asI3771369
(lp195
I12662
aI44843
aI160173
aI823179
aI867582
aI868976
aI1174012
aI1213158
aI1723039
aI1787388
aI2528914
aI2574116
aI2724710
aI2749350
aI2955687
aI3085883
aI3171461
aI3215452
aI3272973
aI3355127
aI3365230
aI3367292
aI3427306
aI3503953
aI3958533
aI3969942
aI4246065
aI4250608
aI4338236
aI4403216
aI4462792
aI4524732
aI4649435
aI4663095
aI4694550
aI4726252
aI4793841
aI4870053
aI4932215
aI5126991
aI5142174
aI5207688
aI5436168
aI5552239
aI5740275
aI5881432
aI6041426
aI6279501
aI6337282
aI6564065
aI6578008
aI7102538
aI7659812
aI7867790
aI7937518
aI8027201
aI8161055
aI8310364
aI8610956
aI8898445
aI9006308
aI9337624
aI9422540
aI9687459
aI9749243
aI9937527
aI10032063
aI10843436
aI11493685
aI11531487
aI11656665
aI11747688
aI11871890
aI12100787
aI12288223
aI12293865
aI12821547
aI13563399
aI14386267
aI14419007
aI15440303
aI15860009
aI16665204
aI17097306
aI17645989
aI18006023
aI18312036
aI18322878
aI19176414
aI19364754
aI20204808
aI20347657
aI23416977
aI26844369
aI27924385
aI28601046
aI29114306
aI36565016
aI38255473
aI38492261
aI40930566
aI40976682
aI41130644
aI44891108
aI49028999
aI49406612
aI50299418
aI55065384
aI55483095
aI58611990
aI58819874
aI61758963
aI62861860
aI67388399
aI68793847
aI76705031
aI77303348
aI78068394
aI87076022
aI93848406
aI104102812
aI105211516
aI106637969
aI108219695
aI122111395
aI124491074
aI134506574
aI139365724
aI145136254
aI146831330
aI149072396
aI166942832
aI169168450
aI178848778
aI181224253
aI181562984
aI182308838
aI192019818
aI192288556
aI226440450
aI241090828
asI3427306
(lp196
I823179
aI868976
aI1787388
aI2749350
aI3085883
aI3215452
aI3365230
aI3367292
aI3503953
aI3771369
aI3932904
aI3958533
aI3969942
aI4054594
aI4382085
aI4403216
aI4409303
aI4432381
aI4462792
aI4524732
aI4646304
aI4649435
aI4694550
aI4932215
aI4952928
aI5008415
aI5126991
aI5187985
aI5227712
aI5436168
aI5442351
aI6337587
aI6564065
aI6578008
aI7102538
aI7423881
aI7623749
aI7987592
aI8161055
aI8310364
aI10032063
aI11656665
aI11747688
aI12100787
aI12259049
aI12288223
aI14192742
aI14386267
aI14419007
aI18312036
aI18322878
aI18645719
aI19579914
aI23985010
aI49028999
aI50299418
aI55065384
aI58611990
aI65741215
aI122111395
aI134099929
aI174992765
asI43639787
(lp197
I3776238
aI4005527
aI6453997
aI8859864
aI9372576
aI11333121
aI12729486
aI16363770
aI17940294
aI20306016
aI23369923
aI28199456
aI71774386
aI145876672
aI172903698
aI190200296
asI207210135
(lp198
I664118
aI823179
aI4870053
aI6564065
aI7102538
aI9006308
aI12288223
aI14192742
aI18006023
aI28601046
aI43670798
aI61758963
aI62861860
aI68793847
aI104102812
aI106637969
aI138379233
aI182308838
asI67388399
(lp199
I160173
aI867582
aI3771369
aI4554266
aI5740275
aI6337282
aI11493685
aI17645989
aI23416977
aI29114306
aI32953418
aI40976682
aI41130644
aI42180880
aI55483095
aI77303348
aI78068394
aI89032013
aI93848406
aI108219695
aI178274601
asI4250608
(lp200
I664118
aI823179
aI868976
aI881143
aI1174012
aI1213158
aI1723039
aI1787388
aI2749350
aI3194187
aI3272973
aI3355127
aI3365230
aI3550880
aI3771369
aI3958533
aI4054594
aI4058990
aI4338236
aI4403216
aI4462792
aI4649435
aI4663095
aI4694550
aI4870053
aI4932215
aI5126991
aI5436168
aI5586807
aI6337587
aI6564065
aI7102538
aI7423881
aI7607933
aI7851729
aI7867790
aI7937518
aI7987592
aI8310364
aI9006308
aI9156006
aI9337624
aI9422540
aI9687459
aI10032063
aI11656665
aI11747688
aI11759640
aI11871890
aI12100787
aI12288223
aI12293865
aI12626651
aI14192742
aI14386267
aI18006023
aI18322878
aI42055887
aI49028999
aI58611990
aI68793847
aI122111395
aI124491074
aI138379233
asI117558258
(lp201
I823179
aI28601046
aI54797773
aI62861860
aI104102812
aI124491074
aI141125660
asI517119
(lp202
I701588
aI4246065
aI4403216
aI5126991
aI5883723
aI6041426
aI174908035
asI3814400
(lp203
I254162
aI2434271
aI3888786
aI5736098
aI49903583
aI97410954
aI155665658
aI244556803
asI244556803
(lp204
I254162
aI3814400
aI3888786
asI35779414
(lp205
I579608
aI701588
aI850890
aI1213158
aI2528914
aI4793841
aI5008415
aI5346807
aI6453997
aI7659812
aI11333121
aI12729486
aI13271008
aI28199456
aI72034399
aI138591781
aI145876672
aI295653413
asI19579914
(lp206
I823179
aI868976
aI1787388
aI2749350
aI3365230
aI3427306
aI3958533
aI4870053
aI7102538
aI7937518
aI9006308
aI9337624
aI9422540
aI9687459
aI9749243
aI12100787
aI12293865
aI12821547
aI13563399
aI13822998
aI14386267
aI14419007
aI15440303
aI15860009
aI18006023
aI18312036
aI18322878
aI19364754
aI20347657
aI27924385
aI28601046
aI38492261
aI40930566
aI43670798
aI50299418
aI53803950
aI55065384
aI59385256
aI61758963
aI62861860
aI65741215
aI68793847
aI105211516
aI124491074
aI138379233
aI146831330
asI5131
(lp207
I1764985
aI4726252
aI175861271
aI240986181
asI12733458
(lp208
I4573639
asI13822998
(lp209
I9749243
aI12821547
aI14419007
aI18312036
aI19364754
aI19579914
aI43670798
aI105211516
aI124491074
aI156232210
aI174992765
asI14470168
(lp210
I3503953
aI3776238
aI4649435
aI5008415
aI5289777
aI6414780
aI6453997
aI7227641
aI7659812
aI7963227
aI8442243
aI12695781
aI13271008
aI17331254
aI25561821
aI32614725
aI40734657
aI41621015
aI138591781
aI145876672
aI149111484
asI5008415
(lp211
I823179
aI2528914
aI2749350
aI2955687
aI3085883
aI3367292
aI3427306
aI3503953
aI3900810
aI3932904
aI3969942
aI4054594
aI4191691
aI4338236
aI4382085
aI4432381
aI4462792
aI4514007
aI4524732
aI4646304
aI4649435
aI4932215
aI4952928
aI5084239
aI5187985
aI5289777
aI5442351
aI5527490
aI6041426
aI6291055
aI6470620
aI6934525
aI7607933
aI7623749
aI7857693
aI7987592
aI8310364
aI9457865
aI10032063
aI13271008
aI14470168
aI23369923
aI35779414
aI65741215
aI313967476
asI57619491
(lp212
sI12821547
(lp213
I823179
aI1174012
aI3365230
aI3367292
aI3771369
aI3958533
aI4403216
aI4793841
aI4870053
aI5126991
aI7102538
aI7913977
aI7937518
aI8027201
aI8501936
aI9337624
aI9422540
aI9749243
aI12293865
aI13563399
aI13822998
aI14386267
aI14419007
aI17108389
aI18312036
aI19579914
aI27924385
aI28601046
aI38492261
aI43670798
aI49028999
aI50299418
aI62861860
aI105211516
aI124491074
aI141125660
aI146831330
aI156232210
asI6337587
(lp214
I2749350
aI3215452
aI3365230
aI3427306
aI4250608
aI4403216
aI5126991
aI5227712
aI6564065
aI7623749
aI10032063
aI12288223
aI13260042
aI49028999
aI62861860
asI17331254
(lp215
I3776238
aI6453997
aI7227641
aI7659812
aI12695781
aI14470168
aI22432647
aI25561821
aI32614725
aI40734657
aI149111484
asI14419007
(lp216
I664118
aI823179
aI868976
aI881143
aI2749350
aI3085883
aI3194187
aI3215452
aI3272973
aI3365230
aI3367292
aI3427306
aI3503953
aI3550880
aI3771369
aI3958533
aI3969942
aI4403216
aI4462792
aI4514007
aI4524732
aI4870053
aI4932215
aI5126991
aI5187985
aI7102538
aI7607933
aI7623749
aI7937518
aI7987592
aI8310364
aI8501936
aI9006308
aI9337624
aI9422540
aI9687459
aI9749243
aI9937527
aI10032063
aI12100787
aI12288223
aI12293865
aI12821547
aI13260042
aI13563399
aI13822998
aI14192742
aI14386267
aI15440303
aI16665204
aI18006023
aI18312036
aI19364754
aI19579914
aI20347657
aI27924385
aI28601046
aI38492261
aI43670798
aI49028999
aI50299418
aI54797773
aI55065384
aI62861860
aI87076022
aI105211516
aI122111395
aI124491074
asI8027201
(lp217
I664118
aI823179
aI881143
aI2724710
aI2749350
aI3272973
aI3365230
aI3771369
aI3958533
aI4403216
aI4870053
aI4932215
aI5126991
aI5436168
aI7937518
aI9006308
aI9422540
aI9749243
aI12100787
aI12293865
aI12821547
aI13563399
aI14386267
aI15292161
aI18006023
aI18312036
aI19364754
aI20347657
aI38492261
aI43670798
aI50299418
aI55065384
aI58611990
aI61758963
aI67616271
aI68793847
aI122111395
aI141125660
asI7623749
(lp218
I823179
aI2724710
aI2749350
aI3085883
aI3215452
aI3272973
aI3365230
aI3367292
aI3427306
aI3550880
aI3958533
aI4054594
aI4191691
aI4409303
aI4462792
aI4524732
aI4646304
aI4649435
aI4694550
aI4870053
aI4932215
aI4952928
aI5008415
aI5227712
aI5442351
aI5527490
aI6337587
aI6564065
aI6578008
aI7102538
aI7857693
aI7987592
aI8161055
aI9687459
aI10032063
aI11656665
aI12288223
aI12626651
aI14192742
aI14419007
aI16665204
aI23985010
aI49028999
aI55065384
aI65741215
aI122111395
aI313967476
asI32953418
(lp219
I160173
aI3171461
aI4554266
aI6337282
aI8898445
aI11278906
aI11493685
aI12324233
aI12394895
aI23416977
aI29114306
aI40976682
aI41130644
aI42836825
aI67388399
aI78068394
aI89032013
aI103366032
aI152818311
aI178274601
aI226440450
asI5084239
(lp220
I3085883
aI4054594
aI4382085
aI4409303
aI4426091
aI4524732
aI4646304
aI4649435
aI4932215
aI5008415
aI5217151
aI5527490
aI5586807
aI6470620
aI6937419
aI7857693
aI8310364
aI9156006
aI12626651
aI15002138
aI51440440
aI65741215
asI8447058
(lp221
I4573639
aI6506760
aI7196475
aI7231750
aI8030915
aI8276010
aI8340376
aI10212959
aI266131475
asI14386267
(lp222
I823179
aI881143
aI1107242
aI1174012
aI1598595
aI1723039
aI1787388
aI2749350
aI3272973
aI3365230
aI3427306
aI3771369
aI3958533
aI4250608
aI4403216
aI4870053
aI5126991
aI5436168
aI6564065
aI7102538
aI8027201
aI9006308
aI9337624
aI9422540
aI9749243
aI9937527
aI11656665
aI12100787
aI12821547
aI13260042
aI13563399
aI14192742
aI14419007
aI15860009
aI16665204
aI17108389
aI18006023
aI18312036
aI19364754
aI19579914
aI20347657
aI27924385
aI28601046
aI38492261
aI40930566
aI43670798
aI49028999
aI50299418
aI58611990
aI59385256
aI61758963
aI62861860
aI68793847
aI122111395
aI124491074
aI138379233
aI146831330
aI156232210
aI182308838
aI238930773
asI67716191
(lp223
I868976
aI1174012
aI4403216
aI4462792
aI4932215
aI5126991
aI7867790
aI9006308
aI9457865
aI15002138
aI16946464
aI18522943
asI10773615
(lp224
I155665658
asI4400240
(lp225
I868976
aI2749350
aI3194187
aI3367292
aI3503953
aI3550880
aI3969942
aI4054594
aI4191691
aI4324802
aI4382085
aI4409303
aI4462792
aI4514007
aI4524732
aI4649435
aI4694550
aI4932215
aI5126991
aI5187985
aI6934525
aI7423881
aI7607933
aI7867790
aI8310364
aI9457865
aI11747688
aI12259049
aI12626651
aI15002138
aI16946464
aI17920427
aI42055887
asI3595392
(lp226
I8593180
asI818307
(lp227
I3359439
aI3370622
aI5660622
asI3171461
(lp228
I802965
aI867582
aI1871958
aI3272973
aI3771369
aI4432381
aI4932215
aI5740275
aI6337282
aI8898445
aI10843436
aI11493685
aI17097306
aI17645989
aI20204808
aI23416977
aI26844369
aI29114306
aI32953418
aI42180880
aI49406612
aI55483095
aI58819874
aI76705031
aI77303348
aI78068394
aI89032013
aI93848406
aI103366032
aI108219695
aI139365724
aI149072396
aI178274601
aI181562984
aI192019818
aI226440450
asI3355127
(lp229
I802965
aI868976
aI1787388
aI3215452
aI3272973
aI3365230
aI3771369
aI4250608
aI4649435
aI4694550
aI4932215
aI5126991
aI5436168
aI5740275
aI6564065
aI10032063
aI11656665
aI11747688
aI14192742
aI18322878
aI23985010
asI8610956
(lp230
I44843
aI701588
aI868976
aI3272973
aI3771369
aI4403216
aI4932215
aI6041426
aI6279501
aI7986433
aI11656665
aI12100787
aI13563399
aI19364754
aI20347657
aI40930566
aI50299418
aI68793847
aI146831330
aI178848778
asI12729486
(lp231
I579608
aI701588
aI1213158
aI3776238
aI4793841
aI7227641
aI8859864
aI9372576
aI11333121
aI16363770
aI17940294
aI20306016
aI28199456
aI35779414
aI43639787
asI701588
(lp232
I517119
aI579608
aI850890
aI868976
aI1213158
aI1787388
aI2749350
aI3272973
aI4403216
aI4793841
aI4932215
aI5126991
aI6041426
aI6279501
aI8610956
aI9937527
aI11656665
aI12293865
aI12729486
aI13563399
aI18006023
aI18322878
aI19176414
aI19364754
aI20347657
aI35779414
aI40930566
aI50299418
aI58819874
aI61758963
aI68793847
aI72034399
aI77303348
aI134506574
aI146831330
aI174908035
asI50299418
(lp233
I664118
aI701588
aI823179
aI868976
aI881143
aI1213158
aI2574116
aI2724710
aI2749350
aI3272973
aI3365230
aI3427306
aI3771369
aI3958533
aI4403216
aI4870053
aI4932215
aI5126991
aI5436168
aI6041426
aI6279501
aI7102538
aI7937518
aI8027201
aI8610956
aI9006308
aI9422540
aI9749243
aI9937527
aI11656665
aI12100787
aI12288223
aI12293865
aI12821547
aI13260042
aI13563399
aI14386267
aI14419007
aI15440303
aI18006023
aI19364754
aI19579914
aI20347657
aI28601046
aI40930566
aI43670798
aI55065384
aI58611990
aI58819874
aI59385256
aI61758963
aI68793847
aI76705031
aI77303348
aI122111395
aI124491074
aI134506574
aI139365724
aI146831330
aI192288556
asI12283045
(lp234
I2749350
aI3819351
aI6279501
aI23369923
aI30161112
aI138591781
asI5840047
(lp235
I2035485
aI3085883
aI3503953
aI4649435
aI5289777
aI6291055
aI7659812
aI8990515
aI31689128
aI77512594
aI87720115
aI138591781
aI145876672
aI295653413
asI12100787
(lp236
I44843
aI664118
aI823179
aI868976
aI1213158
aI1787388
aI2528914
aI2574116
aI2724710
aI2749350
aI3272973
aI3365230
aI3427306
aI3503953
aI3771369
aI3958533
aI3969942
aI4250608
aI4403216
aI4649435
aI4793841
aI4870053
aI4932215
aI5126991
aI5436168
aI6041426
aI6279501
aI7102538
aI7851729
aI7867790
aI7937518
aI7987592
aI8027201
aI8610956
aI9422540
aI9687459
aI9937527
aI10032063
aI11656665
aI11747688
aI11871890
aI12288223
aI12293865
aI13260042
aI13563399
aI14192742
aI14386267
aI14419007
aI15440303
aI16665204
aI17518994
aI18006023
aI18312036
aI18322878
aI19364754
aI19579914
aI20021588
aI20347657
aI28601046
aI38492261
aI40930566
aI44891108
aI49028999
aI50299418
aI53796935
aI55065384
aI58611990
aI61758963
aI62861860
aI65741215
aI77303348
aI105211516
aI122111395
aI124491074
aI134506574
aI138379233
aI146831330
aI166942832
aI178848778
aI182308838
aI192288556
asI87076022
(lp237
I823179
aI3272973
aI3771369
aI11656665
aI12293865
aI13563399
aI14419007
aI33732565
aI43670798
aI61758963
aI62861860
aI67616271
aI68793847
aI134506574
aI146831330
aI182308838
aI241090828
asI313967476
(lp238
I823179
aI868976
aI2528914
aI2724710
aI2749350
aI2955687
aI3085883
aI3194187
aI3367292
aI3503953
aI3550880
aI3932904
aI3969942
aI4054594
aI4191691
aI4382085
aI4462792
aI4514007
aI4524732
aI4649435
aI4952928
aI5008415
aI5126991
aI5187985
aI5436168
aI5442351
aI5527490
aI6470620
aI6564065
aI7102538
aI7423881
aI7607933
aI7623749
aI7851729
aI7857693
aI7867790
aI8310364
aI9006308
aI10032063
aI65741215
asI5227712
(lp239
I664118
aI823179
aI868976
aI2749350
aI3215452
aI3365230
aI3427306
aI3531513
aI4649435
aI5126991
aI5436168
aI6337587
aI6564065
aI6578008
aI7102538
aI7623749
aI7867790
aI9337624
aI9422540
aI10032063
aI12288223
aI13260042
aI14192742
aI49028999
aI59385256
aI122111395
asI39339203
(lp240
sI92691655
(lp241
I853754
aI77303348
aI119601700
aI120281856
aI127492149
aI156498024
aI200505490
asI26844369
(lp242
I3171461
aI3771369
aI5740275
aI6041426
aI6337282
aI8898445
aI10843436
aI11493685
aI17645989
aI20204808
aI23416977
aI29114306
aI42180880
aI55483095
aI58819874
aI76705031
aI77303348
aI139365724
aI149072396
aI181562984
aI192019818
asI119601700
(lp243
I853754
aI77303348
aI92691655
aI120281856
aI127492149
aI143677318
aI156498024
aI200505490
aI305655700
asI2434271
(lp244
I3814400
aI97410954
asI9006308
(lp245
I12662
aI664118
aI775034
aI823179
aI868976
aI881143
aI1107242
aI1174012
aI1213158
aI1598595
aI1787388
aI2528914
aI2724710
aI2749350
aI3085883
aI3194187
aI3215452
aI3272973
aI3365230
aI3503953
aI3550880
aI3771369
aI3932904
aI3958533
aI3969942
aI4054594
aI4058990
aI4191691
aI4250608
aI4382085
aI4403216
aI4432381
aI4462792
aI4649435
aI4663095
aI4694550
aI4870053
aI4932215
aI4952928
aI5126991
aI5436168
aI5586807
aI5789202
aI6041426
aI6564065
aI7102538
aI7423881
aI7607933
aI7851729
aI7867790
aI7913977
aI7937518
aI8027201
aI8161055
aI9156006
aI9337624
aI9422540
aI9457865
aI9937527
aI10032063
aI11656665
aI11747688
aI11871890
aI12288223
aI12293865
aI13563399
aI14192742
aI14386267
aI14419007
aI17108389
aI18006023
aI19364754
aI19579914
aI27924385
aI28601046
aI32211584
aI36565016
aI38492261
aI40930566
aI42055887
aI44891108
aI49028999
aI50299418
aI54797773
aI58611990
aI61758963
aI62861860
aI67716191
aI104102812
aI106637969
aI124491074
aI134506574
aI139080472
aI166942832
aI174992765
aI182308838
aI186648161
aI207210135
aI313967476
asI210369776
(lp246
sI11300089
(lp247
I1764985
aI4726252
aI5142174
aI7867790
aI19079337
aI136964713
aI240986181
asI155665658
(lp248
I3814400
aI5736098
aI10773615
asI867582
(lp249
I802965
aI1764985
aI1871958
aI3171461
aI3272973
aI3771369
aI5142174
aI5740275
aI6337282
aI8898445
aI10843436
aI11278906
aI11493685
aI11531487
aI17645989
aI20204808
aI23416977
aI29114306
aI40976682
aI41130644
aI41632399
aI42180880
aI42836825
aI49406612
aI52147892
aI55483095
aI58819874
aI67388399
aI76705031
aI77303348
aI78068394
aI93848406
aI103366032
aI108219695
aI132620494
aI139365724
aI149072396
aI178274601
aI181224253
aI181562984
aI192019818
aI211783327
aI226440450
asI7986433
(lp250
I3272973
aI4403216
aI8610956
aI178848778
asI226440450
(lp251
I160173
aI867582
aI3171461
aI3771369
aI5740275
aI6337282
aI8637963
aI8898445
aI11278906
aI11493685
aI12324233
aI17645989
aI23416977
aI29114306
aI32953418
aI40976682
aI41130644
aI42836825
aI52147892
aI58819874
aI76705031
aI78068394
aI89032013
aI139365724
aI149072396
aI152818311
aI178274601
asI40930566
(lp252
I701588
aI823179
aI881143
aI1723039
aI2574116
aI2749350
aI3272973
aI3771369
aI4403216
aI4793841
aI4932215
aI6279501
aI6453997
aI6564065
aI8610956
aI9006308
aI9337624
aI9422540
aI9937527
aI10843436
aI11656665
aI12100787
aI12293865
aI13563399
aI14386267
aI16665204
aI18006023
aI19176414
aI19364754
aI19579914
aI20347657
aI27924385
aI28601046
aI38492261
aI43670798
aI50299418
aI61758963
aI62861860
aI68793847
aI77303348
aI124491074
aI134506574
aI138379233
aI146831330
aI156232210
aI169168450
asI76705031
(lp253
I867582
aI1871958
aI3171461
aI3272973
aI3771369
aI5740275
aI6337282
aI8898445
aI9422540
aI10843436
aI11493685
aI11531487
aI12324233
aI17645989
aI19364754
aI20204808
aI26844369
aI29114306
aI40976682
aI41130644
aI41632399
aI42180880
aI49406612
aI50299418
aI52147892
aI55483095
aI58819874
aI77303348
aI103366032
aI108219695
aI139365724
aI149072396
aI178274601
aI181562984
aI192019818
aI226440450
asI20204808
(lp254
I867582
aI1871958
aI3171461
aI3272973
aI3771369
aI5740275
aI6337282
aI8898445
aI10843436
aI11493685
aI11531487
aI17645989
aI26844369
aI29114306
aI41632399
aI42180880
aI49406612
aI55483095
aI58819874
aI76705031
aI77303348
aI89032013
aI93848406
aI103366032
aI108219695
aI132620494
aI139365724
aI149072396
aI174908035
aI178274601
aI181562984
aI211783327
asI13260042
(lp255
I44843
aI823179
aI1213158
aI2749350
aI3365230
aI3958533
aI4403216
aI5227712
aI6337587
aI7102538
aI9422540
aI11656665
aI12100787
aI12293865
aI14386267
aI14419007
aI15002138
aI18006023
aI19364754
aI20347657
aI27924385
aI28601046
aI38492261
aI43670798
aI49028999
aI50299418
aI55065384
aI58611990
aI59385256
aI124491074
aI166942832
aI192288556
asI43670798
(lp256
I868976
aI881143
aI1723039
aI2724710
aI2749350
aI3365230
aI3503953
aI3958533
aI3969942
aI4289905
aI4403216
aI4870053
aI4932215
aI5126991
aI6564065
aI7102538
aI7913977
aI7987592
aI8027201
aI9422540
aI9687459
aI9749243
aI9937527
aI10032063
aI11656665
aI12288223
aI12293865
aI12821547
aI13260042
aI13563399
aI13822998
aI14192742
aI14386267
aI14419007
aI15440303
aI15860009
aI16665204
aI18006023
aI18312036
aI19364754
aI19579914
aI20347657
aI27924385
aI28601046
aI38492261
aI40930566
aI44891108
aI49028999
aI50299418
aI58314153
aI58611990
aI59385256
aI61758963
aI62861860
aI67616271
aI68793847
aI87076022
aI106637969
aI122111395
aI124491074
aI134099929
aI138379233
aI139080472
aI146831330
aI156232210
aI174992765
aI207210135
asI54969615
(lp257
I3085883
aI3272973
aI3503953
aI3932904
aI3969942
aI4054594
aI4382085
aI5187985
aI5586807
aI7857693
asI30161112
(lp258
I1174012
aI1764985
aI3958533
aI4256203
aI4403216
aI5142174
aI5552239
aI5883723
aI6279501
aI12283045
aI18461556
aI138591781
aI174908035
asI172903698
(lp259
I3776238
aI7227641
aI8859864
aI9372576
aI11333121
aI16363770
aI17940294
aI20306016
aI43639787
aI190200296
asI16946464
(lp260
I868976
aI4400240
aI4403216
aI4932215
aI7867790
aI9457865
aI15002138
aI18522943
aI42055887
aI67716191
asI58819874
(lp261
I701588
aI867582
aI2749350
aI3085883
aI3171461
aI3272973
aI3771369
aI4403216
aI4870053
aI4932215
aI5740275
aI6041426
aI6279501
aI6337282
aI8898445
aI9937527
aI10843436
aI11493685
aI11531487
aI11656665
aI12293865
aI12324233
aI13563399
aI15292161
aI17645989
aI18006023
aI19176414
aI19364754
aI20204808
aI20347657
aI23416977
aI26844369
aI28601046
aI29114306
aI41130644
aI42180880
aI42836825
aI44891108
aI49406612
aI50299418
aI55483095
aI61758963
aI68793847
aI76705031
aI77303348
aI78068394
aI89032013
aI104102812
aI108219695
aI132620494
aI138591781
aI139365724
aI146831330
aI149072396
aI166942832
aI178274601
aI192019818
aI226440450
aI241090828
asI1486122
(lp262
I14732
aI189157
aI3359439
aI54611363
asI10843436
(lp263
I867582
aI3171461
aI3771369
aI4932215
aI5740275
aI6337282
aI8898445
aI11493685
aI11531487
aI13563399
aI17645989
aI20204808
aI23416977
aI26844369
aI29114306
aI40930566
aI42836825
aI49406612
aI55483095
aI58819874
aI76705031
aI77303348
aI103366032
aI108219695
aI139365724
aI149072396
aI178274601
aI181562984
aI192019818
asI108219695
(lp264
I160173
aI867582
aI1871958
aI3171461
aI3272973
aI3771369
aI5740275
aI6337282
aI8898445
aI10843436
aI11531487
aI17097306
aI17645989
aI20204808
aI23416977
aI29114306
aI41130644
aI41632399
aI42180880
aI49406612
aI55483095
aI58819874
aI67388399
aI76705031
aI77303348
aI78068394
aI93848406
aI103366032
aI132620494
aI149072396
aI178274601
aI181562984
asI11531487
(lp265
I867582
aI3272973
aI3771369
aI5740275
aI6337282
aI8637963
aI8898445
aI10843436
aI11493685
aI17645989
aI20204808
aI23416977
aI29114306
aI40976682
aI41130644
aI42836825
aI49406612
aI52147892
aI55483095
aI58819874
aI76705031
aI78068394
aI89032013
aI93848406
aI103366032
aI108219695
aI139365724
aI149072396
aI178274601
aI181562984
aI192019818
asI124491074
(lp266
I12662
aI44843
aI664118
aI775034
aI823179
aI868976
aI881143
aI1213158
aI1787388
aI2574116
aI2749350
aI3085883
aI3272973
aI3365230
aI3367292
aI3503953
aI3550880
aI3771369
aI3958533
aI3969942
aI4246065
aI4250608
aI4403216
aI4793841
aI4870053
aI5126991
aI5436168
aI6041426
aI6564065
aI7102538
aI7913977
aI7937518
aI7987592
aI9006308
aI9337624
aI9422540
aI9749243
aI9937527
aI10032063
aI11656665
aI11747688
aI11871890
aI12100787
aI12288223
aI12293865
aI12821547
aI13260042
aI13563399
aI13822998
aI14192742
aI14386267
aI14419007
aI15440303
aI15860009
aI17108389
aI18006023
aI18312036
aI18322878
aI19364754
aI19579914
aI20347657
aI28601046
aI38492261
aI40930566
aI43670798
aI44891108
aI49028999
aI50299418
aI58314153
aI58611990
aI59385256
aI61758963
aI62861860
aI67616271
aI68793847
aI104102812
aI105211516
aI106637969
aI117558258
aI122111395
aI134506574
aI138379233
aI141125660
aI146831330
aI156232210
aI169168450
aI182308838
asI3194187
(lp267
I823179
aI868976
aI2749350
aI3367292
aI3503953
aI3550880
aI3969942
aI4191691
aI4250608
aI4400240
aI4524732
aI4663095
aI4932215
aI5187985
aI6470620
aI6934525
aI7607933
aI7851729
aI8310364
aI9006308
aI12626651
aI14419007
aI313967476
asI89032013
(lp268
I160173
aI1871958
aI3171461
aI4554266
aI5740275
aI6337282
aI8637963
aI8898445
aI11278906
aI11493685
aI11531487
aI12324233
aI20204808
aI23416977
aI30676970
aI32953418
aI40976682
aI41130644
aI42180880
aI42836825
aI52147892
aI55483095
aI58819874
aI67388399
aI77303348
aI78068394
aI103366032
aI132620494
aI149072396
aI152818311
aI178274601
aI181224253
aI226440450
asI139365724
(lp269
I867582
aI3171461
aI3272973
aI3771369
aI5740275
aI8898445
aI10843436
aI11493685
aI11531487
aI12324233
aI17645989
aI19364754
aI20204808
aI26844369
aI29114306
aI40976682
aI42180880
aI42836825
aI50299418
aI55483095
aI58819874
aI76705031
aI103366032
aI149072396
aI178274601
aI181562984
aI192019818
aI226440450
asI185314655
(lp270
I8593180
asI192019818
(lp271
I802965
aI867582
aI3171461
aI3272973
aI3771369
aI5740275
aI6066033
aI6337282
aI8898445
aI10843436
aI11493685
aI11531487
aI17645989
aI26844369
aI29114306
aI42180880
aI49406612
aI55483095
aI58819874
aI76705031
aI77303348
aI139365724
aI178274601
aI181562984
asI4568432
(lp272
sI305655700
(lp273
I853754
aI77303348
aI119601700
aI120281856
aI127492149
aI143677318
aI156498024
asI4382085
(lp274
I2749350
aI3272973
aI3427306
aI3932904
aI3969942
aI4054594
aI4191691
aI4400240
aI4409303
aI4462792
aI4524732
aI4646304
aI4694550
aI4932215
aI5008415
aI5084239
aI5217151
aI5527490
aI7423881
aI7607933
aI7857693
aI7867790
aI7987592
aI8310364
aI9006308
aI9457865
aI10032063
aI11656665
aI11747688
aI17920427
aI36565016
aI42055887
aI54969615
aI313967476
asI12324233
(lp275
I160173
aI4554266
aI8637963
aI8898445
aI11278906
aI23416977
aI30676970
aI32953418
aI40976682
aI41130644
aI52147892
aI58819874
aI76705031
aI89032013
aI139365724
aI149072396
aI226440450
asI3900810
(lp276
I664118
aI823179
aI868976
aI2749350
aI2955687
aI3085883
aI3503953
aI3969942
aI4054594
aI4338236
aI4432381
aI4462792
aI4514007
aI4649435
aI5008415
aI5187985
aI5217151
aI6041426
aI7987592
aI14192742
aI32211584
asI44627339
(lp277
sI169168450
(lp278
I823179
aI1723039
aI1787388
aI2749350
aI3272973
aI3365230
aI3771369
aI4246065
aI4932215
aI6564065
aI11656665
aI13563399
aI16665204
aI19364754
aI20347657
aI27924385
aI28601046
aI38492261
aI40930566
aI62861860
aI68793847
aI77303348
aI104102812
aI124491074
aI134506574
aI138379233
aI186648161
aI257376576
asI7867790
(lp279
I823179
aI868976
aI1174012
aI1764985
aI2724710
aI2749350
aI3272973
aI3365230
aI3550880
aI3771369
aI3932904
aI3969942
aI4191691
aI4250608
aI4382085
aI4400240
aI4403216
aI4432381
aI4462792
aI4649435
aI4726252
aI4932215
aI4952928
aI5126991
aI5227712
aI5346807
aI5586807
aI6041426
aI6564065
aI7851729
aI8310364
aI9006308
aI9337624
aI11300089
aI11656665
aI11747688
aI11759640
aI12100787
aI16946464
aI23985010
aI36565016
aI42055887
aI65741215
aI67716191
aI134506574
aI240986181
aI313967476
asI3401103
(lp280
I6414780
aI7659812
aI8859864
aI11333121
aI28199456
aI77512594
asI103366032
(lp281
I867582
aI3171461
aI5740275
aI6337282
aI8898445
aI10843436
aI11493685
aI11531487
aI17645989
aI20204808
aI29114306
aI32953418
aI40976682
aI41130644
aI42180880
aI49406612
aI52147892
aI55483095
aI76705031
aI78068394
aI89032013
aI93848406
aI108219695
aI139365724
aI149072396
aI178274601
aI181562984
asI4646304
(lp282
I868976
aI2749350
aI2955687
aI3085883
aI3367292
aI3427306
aI3503953
aI3550880
aI4054594
aI4191691
aI4382085
aI4409303
aI4514007
aI4524732
aI4649435
aI4694550
aI5008415
aI5084239
aI5187985
aI5436168
aI5442351
aI6470620
aI6578008
aI6934525
aI6937419
aI7607933
aI7623749
aI7857693
aI7987592
aI8161055
aI8310364
aI10032063
aI11656665
aI11747688
aI12626651
aI14192742
aI65741215
asI54611363
(lp283
I1486122
asI17108389
(lp284
I44843
aI775034
aI868976
aI1107242
aI1174012
aI1213158
aI1598595
aI2528914
aI2724710
aI3272973
aI3365230
aI3503953
aI4403216
aI5126991
aI5436168
aI9006308
aI9337624
aI11656665
aI12821547
aI14386267
aI18312036
aI18322878
aI49028999
aI124491074
asI9156006
(lp285
I823179
aI868976
aI2749350
aI3272973
aI3367292
aI3550880
aI3969942
aI4054594
aI4058990
aI4250608
aI4409303
aI4462792
aI4524732
aI4649435
aI4663095
aI4932215
aI5084239
aI5126991
aI5527490
aI5586807
aI6470620
aI7857693
aI8310364
aI9006308
aI9457865
aI10032063
aI10036756
aI11747688
aI12626651
aI14192742
aI36565016
aI42055887
asI59385256
(lp286
I823179
aI1787388
aI2749350
aI3365230
aI3958533
aI4870053
aI5126991
aI5227712
aI6564065
aI7913977
aI7937518
aI9422540
aI11656665
aI12293865
aI13260042
aI13563399
aI14386267
aI18006023
aI19364754
aI19579914
aI28601046
aI38255473
aI43670798
aI50299418
aI55065384
aI58611990
aI105211516
aI124491074
aI156232210
aI166942832
aI174992765
asI2375091
(lp287
I14616
aI477672
aI847599
aI1764985
aI136964713
aI175861271
asI58572214
(lp288
I7227641
aI7851729
aI8859864
aI9372576
aI13271008
aI16363770
aI23369923
aI71774386
asI18322878
(lp289
I31300
aI44843
aI701588
aI775034
aI850890
aI868976
aI1213158
aI1787388
aI2528914
aI2724710
aI2749350
aI3085883
aI3215452
aI3272973
aI3355127
aI3365230
aI3367292
aI3427306
aI3503953
aI3771369
aI3958533
aI3969942
aI4246065
aI4250608
aI4649435
aI4694550
aI4793841
aI4870053
aI4932215
aI5126991
aI5436168
aI6564065
aI7102538
aI7987592
aI8161055
aI8990515
aI9337624
aI10032063
aI11656665
aI11747688
aI11871890
aI12100787
aI12288223
aI12293865
aI13563399
aI14192742
aI17108389
aI18006023
aI18312036
aI19176414
aI19364754
aI19579914
aI20347657
aI28601046
aI49028999
aI53803950
aI58611990
aI62861860
aI105211516
aI124491074
aI134506574
aI145876672
asI4324802
(lp290
I2528914
aI4400240
aI5736098
aI97410954
asI54797773
(lp291
I823179
aI881143
aI4246065
aI6564065
aI7102538
aI9006308
aI12288223
aI13563399
aI14419007
aI16665204
aI20347657
aI27924385
aI28601046
aI61758963
aI62861860
aI68793847
aI104102812
aI117558258
aI141125660
asI11656665
(lp292
I701588
aI775034
aI823179
aI868976
aI1213158
aI1598595
aI1787388
aI2528914
aI2574116
aI2724710
aI2749350
aI2955687
aI3085883
aI3215452
aI3272973
aI3355127
aI3365230
aI3427306
aI3503953
aI3771369
aI3819351
aI3958533
aI3969942
aI4054594
aI4246065
aI4250608
aI4338236
aI4382085
aI4403216
aI4409303
aI4432381
aI4462792
aI4646304
aI4649435
aI4663095
aI4694550
aI4793841
aI4870053
aI4932215
aI4952928
aI5126991
aI5207688
aI5217151
aI5436168
aI5442351
aI5789202
aI6041426
aI6279501
aI6564065
aI6578008
aI6937419
aI7102538
aI7423881
aI7623749
aI7851729
aI7867790
aI7913977
aI7937518
aI7987592
aI8161055
aI8310364
aI8610956
aI9006308
aI9337624
aI9422540
aI9457865
aI9749243
aI9937527
aI10032063
aI11747688
aI11871890
aI12100787
aI12288223
aI12293865
aI13260042
aI13563399
aI14192742
aI14386267
aI15440303
aI17097306
aI17108389
aI18006023
aI18312036
aI18322878
aI19176414
aI19364754
aI20347657
aI23985010
aI28601046
aI33732565
aI36565016
aI38492261
aI40930566
aI42055887
aI43670798
aI44891108
aI49028999
aI50299418
aI53803950
aI58611990
aI58819874
aI59385256
aI61758963
aI62861860
aI67616271
aI68793847
aI77303348
aI87076022
aI104102812
aI105211516
aI122111395
aI124491074
aI134506574
aI146831330
aI166942832
aI169168450
aI178848778
aI182308838
asI12137949
(lp293
I3272973
aI8593180
aI15440303
asI4726252
(lp294
I5131
aI1764985
aI3272973
aI3771369
aI4256203
aI5142174
aI5552239
aI5881432
aI7867790
aI8090090
aI11300089
aI19079337
aI19120279
aI30676970
aI136964713
aI240986181
asI7937518
(lp295
I823179
aI881143
aI1213158
aI1723039
aI2724710
aI3365230
aI3771369
aI3958533
aI4250608
aI4403216
aI4649435
aI4793841
aI4870053
aI5126991
aI7102538
aI8027201
aI9006308
aI9749243
aI9937527
aI11656665
aI12100787
aI12293865
aI12821547
aI13563399
aI14419007
aI15440303
aI16665204
aI19364754
aI19579914
aI20347657
aI44891108
aI50299418
aI59385256
aI62861860
aI122111395
aI124491074
aI146831330
aI166942832
asI4793841
(lp296
I14732
aI579608
aI664118
aI701588
aI823179
aI850890
aI1213158
aI1787388
aI2724710
aI2749350
aI3365230
aI3771369
aI4403216
aI4870053
aI5126991
aI7102538
aI7937518
aI9337624
aI9937527
aI11656665
aI12100787
aI12288223
aI12729486
aI12821547
aI13563399
aI18006023
aI18322878
aI19364754
aI28601046
aI35779414
aI40930566
aI44891108
aI62861860
aI68793847
aI72034399
aI106637969
aI124491074
aI166942832
aI192288556
asI68793847
(lp297
I701588
aI823179
aI1723039
aI1787388
aI2749350
aI3272973
aI3365230
aI3771369
aI4246065
aI4250608
aI4403216
aI4793841
aI4870053
aI4932215
aI5126991
aI6041426
aI6279501
aI6564065
aI7102538
aI8027201
aI8610956
aI9337624
aI9422540
aI9937527
aI11656665
aI12288223
aI12293865
aI13563399
aI14386267
aI16665204
aI18006023
aI19176414
aI19364754
aI19579914
aI20347657
aI27924385
aI28601046
aI38492261
aI40930566
aI43670798
aI50299418
aI54797773
aI58819874
aI61758963
aI62861860
aI67616271
aI77303348
aI87076022
aI104102812
aI106637969
aI124491074
aI134506574
aI138379233
aI146831330
aI166942832
aI169168450
aI207210135
asI1787388
(lp298
I12662
aI31300
aI44843
aI664118
aI701588
aI775034
aI823179
aI850890
aI868976
aI1213158
aI1598595
aI2528914
aI2724710
aI2749350
aI3215452
aI3272973
aI3355127
aI3365230
aI3427306
aI3503953
aI3771369
aI3969942
aI4250608
aI4403216
aI4462792
aI4649435
aI4694550
aI4793841
aI4870053
aI4932215
aI5126991
aI5436168
aI6564065
aI6578008
aI7102538
aI7851729
aI7987592
aI8990515
aI9006308
aI9337624
aI9422540
aI10032063
aI11656665
aI11747688
aI11871890
aI12100787
aI12288223
aI13563399
aI14192742
aI14386267
aI18006023
aI18322878
aI19176414
aI19364754
aI19579914
aI28601046
aI38492261
aI44891108
aI58611990
aI59385256
aI61758963
aI62861860
aI68793847
aI124491074
aI134506574
aI138379233
aI169168450
asI11333121
(lp299
I189157
aI3401103
aI3776238
aI4005527
aI5289777
aI5660622
aI6291055
aI7227641
aI7659812
aI8859864
aI8990515
aI9115892
aI9372576
aI12587306
aI12695781
aI12729486
aI13271008
aI15058754
aI16363770
aI17749727
aI17797695
aI17940294
aI20306016
aI23369923
aI28199456
aI31689128
aI35779414
aI43639787
aI53284488
aI145876672
aI172903698
aI190200296
asI27196930
(lp300
I18006023
aI38255473
asI13563399
(lp301
I664118
aI701588
aI823179
aI868976
aI881143
aI1213158
aI1723039
aI1787388
aI2724710
aI2749350
aI3272973
aI3365230
aI3771369
aI3958533
aI4246065
aI4403216
aI4793841
aI4870053
aI4932215
aI5126991
aI5436168
aI6041426
aI6279501
aI6564065
aI7102538
aI7937518
aI8027201
aI8610956
aI9006308
aI9337624
aI9422540
aI9937527
aI10843436
aI11656665
aI12100787
aI12288223
aI12293865
aI12821547
aI14386267
aI14419007
aI15440303
aI16665204
aI18006023
aI18312036
aI18322878
aI19176414
aI19364754
aI19579914
aI20347657
aI27924385
aI28601046
aI38492261
aI40930566
aI43670798
aI44891108
aI49028999
aI50299418
aI54797773
aI58819874
aI59385256
aI61758963
aI62861860
aI67616271
aI68793847
aI77303348
aI87076022
aI104102812
aI122111395
aI124491074
aI134506574
aI138379233
aI139080472
aI146831330
aI169168450
aI182308838
aI238930773
aI241090828
asI8637963
(lp302
I160173
aI4554266
aI8898445
aI11278906
aI11531487
aI12324233
aI23416977
aI30676970
aI40976682
aI41130644
aI42836825
aI52147892
aI78068394
aI89032013
aI149072396
aI152818311
aI226440450
asI67616271
(lp303
I823179
aI881143
aI1174012
aI3272973
aI4403216
aI4870053
aI8027201
aI9937527
aI10032063
aI11656665
aI12293865
aI13563399
aI18006023
aI19364754
aI28601046
aI43670798
aI61758963
aI68793847
aI87076022
aI104102812
aI124491074
aI134506574
aI141125660
aI249479611
asI10036756
(lp304
I2749350
aI3272973
aI3958533
aI3969942
aI4058990
aI4403216
aI4462792
aI4649435
aI4663095
aI4932215
aI5126991
aI5586807
aI6041426
aI9156006
aI11747688
aI51440440
aI105211516
aI122111395
asI175861271
(lp305
I5131
aI14616
aI370777
aI477672
aI847599
aI1764985
aI2375091
aI136964713
asI4554266
(lp306
I6337282
aI8637963
aI12324233
aI12394895
aI23416977
aI32953418
aI40976682
aI41130644
aI55483095
aI67388399
aI78068394
aI89032013
asI7857693
(lp307
I823179
aI881143
aI2749350
aI3085883
aI3367292
aI3503953
aI3550880
aI3932904
aI3958533
aI3969942
aI4054594
aI4058990
aI4191691
aI4382085
aI4409303
aI4462792
aI4524732
aI4646304
aI4649435
aI4663095
aI4952928
aI5008415
aI5084239
aI5527490
aI5586807
aI5789202
aI6470620
aI6578008
aI6934525
aI6937419
aI7607933
aI7623749
aI7851729
aI8310364
aI9156006
aI9457865
aI10032063
aI12626651
aI17920427
aI54969615
aI65741215
aI313967476
asI138591781
(lp308
I1764985
aI2749350
aI3365230
aI3531513
aI3776238
aI3819351
aI3969942
aI4403216
aI4932215
aI5142174
aI5840047
aI6510344
aI7659812
aI7963227
aI8090090
aI8859864
aI8968877
aI9457865
aI12259049
aI12283045
aI12293865
aI13271008
aI14470168
aI15292161
aI16363770
aI17940294
aI18645719
aI19364754
aI20306016
aI22432647
aI23369923
aI28199456
aI30161112
aI35396020
aI35779414
aI48868920
aI58819874
aI87720115
aI145876672
aI149111484
aI174908035
aI212674205
asI77303348
(lp309
I44843
aI701588
aI802965
aI853754
aI867582
aI868976
aI1213158
aI1871958
aI2749350
aI3085883
aI3171461
aI3272973
aI3365230
aI3771369
aI4403216
aI4870053
aI4932215
aI5126991
aI5142174
aI5740275
aI6041426
aI6279501
aI6337282
aI8593180
aI9937527
aI10843436
aI11493685
aI11656665
aI12100787
aI12293865
aI13563399
aI15440303
aI17097306
aI17645989
aI18006023
aI19364754
aI20204808
aI20347657
aI26844369
aI29114306
aI40048366
aI40930566
aI40976682
aI41130644
aI41632399
aI42180880
aI44891108
aI50299418
aI55483095
aI58819874
aI61758963
aI67388399
aI68793847
aI76705031
aI78068394
aI89032013
aI92691655
aI93848406
aI104102812
aI106637969
aI108219695
aI119601700
aI120281856
aI127492149
aI134506574
aI143677318
aI146831330
aI156498024
aI169168450
aI178274601
aI192019818
aI200505490
aI211783327
aI241090828
aI257376576
aI258746003
aI305655700
asI48868920
(lp310
I7227641
aI22432647
aI71774386
aI97410954
aI138591781
aI145876672
asI3085883
(lp311
I12662
aI802965
aI823179
aI868976
aI2528914
aI2749350
aI2955687
aI3215452
aI3365230
aI3367292
aI3427306
aI3503953
aI3771369
aI3900810
aI3932904
aI3958533
aI3969942
aI4054594
aI4191691
aI4338236
aI4403216
aI4409303
aI4432381
aI4462792
aI4514007
aI4524732
aI4646304
aI4649435
aI4694550
aI4932215
aI5008415
aI5084239
aI5187985
aI5289777
aI5442351
aI5527490
aI5740275
aI5789202
aI5840047
aI6041426
aI6291055
aI6337282
aI6470620
aI6564065
aI6578008
aI6937419
aI7102538
aI7607933
aI7623749
aI7857693
aI7987592
aI8310364
aI9006308
aI10032063
aI11656665
aI11747688
aI14192742
aI14419007
aI17645989
aI17797695
aI18006023
aI18322878
aI23985010
aI32211584
aI36279687
aI54969615
aI55483095
aI58819874
aI62861860
aI65542156
aI65741215
aI77303348
aI122111395
aI124491074
aI134506574
aI145876672
aI156232210
aI178274601
aI313967476
asI4054594
(lp312
I868976
aI2749350
aI2955687
aI3085883
aI3215452
aI3272973
aI3367292
aI3427306
aI3503953
aI3550880
aI3900810
aI3932904
aI3958533
aI3969942
aI4058990
aI4191691
aI4250608
aI4382085
aI4400240
aI4403216
aI4409303
aI4426091
aI4432381
aI4462792
aI4514007
aI4524732
aI4646304
aI4649435
aI4663095
aI4694550
aI4932215
aI4952928
aI5008415
aI5084239
aI5126991
aI5187985
aI5207688
aI5217151
aI5527490
aI5586807
aI6041426
aI6470620
aI6564065
aI6578008
aI6937419
aI7102538
aI7423881
aI7607933
aI7623749
aI7851729
aI7857693
aI7987592
aI8310364
aI9006308
aI9156006
aI9457865
aI10032063
aI11656665
aI11747688
aI11871890
aI12626651
aI17920427
aI23985010
aI54969615
aI58611990
aI65741215
aI122111395
aI134099929
aI156232210
aI313967476
asI5881432
(lp313
I3771369
aI4726252
aI5142174
aI5552239
aI240986181
asI8310364
(lp314
I868976
aI1107242
aI1598595
aI2724710
aI2749350
aI3085883
aI3194187
aI3272973
aI3367292
aI3427306
aI3503953
aI3550880
aI3771369
aI3932904
aI3958533
aI3969942
aI4054594
aI4058990
aI4250608
aI4338236
aI4382085
aI4400240
aI4403216
aI4409303
aI4426091
aI4432381
aI4462792
aI4514007
aI4524732
aI4646304
aI4649435
aI4663095
aI4932215
aI5008415
aI5084239
aI5126991
aI5187985
aI5436168
aI5442351
aI5527490
aI5586807
aI6041426
aI6470620
aI7423881
aI7607933
aI7857693
aI7867790
aI7987592
aI9156006
aI9457865
aI10032063
aI11656665
aI11747688
aI12626651
aI14192742
aI14419007
aI49028999
aI58611990
aI313967476
asI10212959
(lp315
I7231750
aI8447058
aI266131475
asI181562984
(lp316
I867582
aI3171461
aI3771369
aI5740275
aI6337282
aI8898445
aI10843436
aI11493685
aI11531487
aI17645989
aI20204808
aI26844369
aI29114306
aI42180880
aI49406612
aI55483095
aI76705031
aI103366032
aI108219695
aI139365724
aI149072396
aI178274601
aI192019818
asI139080472
(lp317
I823179
aI4870053
aI9006308
aI9337624
aI9937527
aI13563399
aI18006023
aI28601046
aI43670798
aI44891108
aI61758963
aI62861860
aI106637969
aI138379233
aI141125660
aI145136254
aI146831330
aI182308838
asI6291055
(lp318
I12662
aI823179
aI2955687
aI3085883
aI3503953
aI4338236
aI4432381
aI4462792
aI4649435
aI5008415
aI5187985
aI5289777
aI5840047
aI8161055
aI9457865
aI11333121
aI23985010
aI77512594
aI87720115
aI145876672
aI190200296
asI1764985
(lp319
I5131
aI14616
aI477672
aI847599
aI867582
aI1107242
aI1174012
aI1598595
aI2375091
aI3531513
aI4256203
aI4403216
aI4726252
aI5142174
aI5552239
aI7867790
aI8090090
aI11300089
aI19079337
aI19120279
aI30161112
aI30676970
aI136964713
aI138591781
aI174908035
aI175861271
aI178274601
aI240986181
asI105211516
(lp320
I44843
aI2749350
aI3771369
aI3969942
aI4403216
aI5126991
aI6041426
aI7102538
aI9422540
aI10036756
aI11656665
aI12100787
aI12293865
aI12821547
aI13822998
aI14419007
aI18006023
aI18322878
aI19364754
aI19579914
aI49028999
aI58611990
aI59385256
aI62861860
aI124491074
asI7607933
(lp321
I868976
aI2749350
aI3085883
aI3194187
aI3367292
aI3503953
aI3550880
aI3932904
aI3969942
aI4054594
aI4191691
aI4250608
aI4382085
aI4400240
aI4462792
aI4514007
aI4524732
aI4646304
aI4649435
aI4694550
aI4932215
aI4952928
aI5008415
aI5126991
aI5187985
aI5527490
aI6470620
aI6578008
aI6934525
aI7423881
aI7851729
aI7857693
aI7987592
aI8310364
aI9006308
aI9457865
aI10032063
aI11759640
aI12626651
aI14419007
aI15002138
aI17920427
aI65741215
aI114648456
aI134099929
aI156232210
aI313967476
asI3370622
(lp322
I818307
aI3359439
aI5660622
asI53284488
(lp323
I189157
aI3258201
aI3776238
aI5289777
aI5601962
aI5660622
aI11333121
aI12587306
aI15058754
aI17749727
aI20306016
aI49903583
aI136057724
asI29114306
(lp324
I867582
aI1871958
aI3171461
aI3272973
aI3771369
aI4932215
aI5142174
aI5740275
aI6337282
aI8898445
aI10843436
aI11493685
aI11531487
aI17645989
aI20204808
aI23416977
aI26844369
aI32953418
aI41632399
aI42180880
aI42836825
aI49406612
aI52147892
aI55483095
aI58819874
aI67388399
aI76705031
aI77303348
aI78068394
aI93848406
aI103366032
aI108219695
aI132620494
aI139365724
aI149072396
aI178274601
aI181562984
aI192019818
aI211783327
aI226440450
asI2528914
(lp325
I823179
aI1213158
aI1787388
aI2724710
aI2749350
aI3085883
aI3272973
aI3365230
aI3771369
aI3776238
aI3932904
aI4191691
aI4324802
aI4403216
aI4649435
aI4870053
aI4932215
aI5008415
aI5126991
aI5289777
aI5436168
aI7659812
aI9006308
aI9937527
aI10032063
aI11656665
aI11747688
aI12100787
aI13271008
aI17108389
aI18322878
aI19364754
aI23369923
aI28199456
aI28601046
aI35779414
aI145876672
aI313967476
asI258746003
(lp326
I77303348
aI127492149
aI143677318
aI156498024
asI4005527
(lp327
I3776238
aI7227641
aI7659812
aI8859864
aI9372576
aI11333121
aI16363770
aI17797695
aI19364754
aI20306016
aI28199456
aI43639787
aI87720115
asI37160601
(lp328
sI20215452
(lp329
I40133144
asI5142174
(lp330
I867582
aI1764985
aI3531513
aI3771369
aI4256203
aI4403216
aI4726252
aI5552239
aI5881432
aI5883723
aI8090090
aI11300089
aI29114306
aI30161112
aI30676970
aI77303348
aI136964713
aI138591781
aI174908035
aI178274601
asI211783327
(lp331
I867582
aI1871958
aI20204808
aI29114306
aI41632399
aI77303348
aI178274601
asI3550880
(lp332
I868976
aI881143
aI2749350
aI3194187
aI3367292
aI3503953
aI3932904
aI3958533
aI3969942
aI4054594
aI4191691
aI4250608
aI4400240
aI4409303
aI4462792
aI4524732
aI4646304
aI4663095
aI4694550
aI4932215
aI4952928
aI5126991
aI5442351
aI5527490
aI6470620
aI6564065
aI6934525
aI7423881
aI7607933
aI7623749
aI7851729
aI7857693
aI7867790
aI7987592
aI8310364
aI9006308
aI9156006
aI10032063
aI11747688
aI12626651
aI14419007
aI17920427
aI42055887
aI55065384
aI65741215
aI124491074
aI134099929
aI313967476
asI5736098
(lp333
I3814400
aI4324802
aI7081663
aI97410954
aI155665658
asI160061102
(lp334
I5740275
aI23416977
aI40976682
aI41130644
aI42836825
aI52147892
aI78068394
asI52147892
(lp335
I160173
aI867582
aI8637963
aI8898445
aI11278906
aI11493685
aI11531487
aI12324233
aI23416977
aI29114306
aI30676970
aI40976682
aI41130644
aI42836825
aI76705031
aI78068394
aI89032013
aI103366032
aI132620494
aI149072396
aI160061102
aI181224253
aI226440450
asI7081663
(lp336
I5736098
aI97410954
asI145876672
(lp337
I299356
aI775034
aI2528914
aI3085883
aI3272973
aI3365230
aI3776238
aI4649435
aI4870053
aI5289777
aI5840047
aI6291055
aI6414780
aI6453997
aI6874782
aI7227641
aI7659812
aI7851729
aI7963227
aI8442243
aI8990515
aI9372576
aI11333121
aI12695781
aI13271008
aI14470168
aI16363770
aI17940294
aI18322878
aI20306016
aI23369923
aI25561821
aI28199456
aI31689128
aI32614725
aI35779414
aI41621015
aI43639787
aI48868920
aI71774386
aI122111395
aI138591781
aI149111484
asI9937527
(lp338
I701588
aI823179
aI1213158
aI1723039
aI2528914
aI2574116
aI2724710
aI2749350
aI3272973
aI3365230
aI3771369
aI3958533
aI4246065
aI4403216
aI4793841
aI4870053
aI4932215
aI6279501
aI6564065
aI7102538
aI7937518
aI9006308
aI9422540
aI11656665
aI12100787
aI12288223
aI12293865
aI13563399
aI14386267
aI14419007
aI15440303
aI16665204
aI17097306
aI18006023
aI19176414
aI19364754
aI20347657
aI27924385
aI38492261
aI40930566
aI43670798
aI44891108
aI50299418
aI58819874
aI61758963
aI62861860
aI67616271
aI68793847
aI77303348
aI104102812
aI106637969
aI124491074
aI134506574
aI139080472
aI145136254
aI146831330
aI166942832
aI182308838
asI9422540
(lp339
I44843
aI823179
aI868976
aI881143
aI1174012
aI1213158
aI1723039
aI1787388
aI2724710
aI2749350
aI3215452
aI3272973
aI3365230
aI3367292
aI3503953
aI3771369
aI3958533
aI4250608
aI4403216
aI4870053
aI4932215
aI5126991
aI5227712
aI5436168
aI6041426
aI6564065
aI7102538
aI8027201
aI9006308
aI9687459
aI9749243
aI9937527
aI10032063
aI11656665
aI11747688
aI12100787
aI12293865
aI12821547
aI13260042
aI13563399
aI14386267
aI14419007
aI18006023
aI18312036
aI19364754
aI19579914
aI20347657
aI40930566
aI42055887
aI43670798
aI49028999
aI50299418
aI55065384
aI59385256
aI62861860
aI68793847
aI76705031
aI105211516
aI124491074
aI134506574
aI146831330
aI156232210
aI192288556
asI7851729
(lp340
I823179
aI1787388
aI2749350
aI3194187
aI3272973
aI3365230
aI3503953
aI3550880
aI3932904
aI3969942
aI4054594
aI4250608
aI4649435
aI4932215
aI4952928
aI5126991
aI5527490
aI6934525
aI7423881
aI7607933
aI7857693
aI7867790
aI9006308
aI10032063
aI11656665
aI12100787
aI18006023
aI23369923
aI23985010
aI36565016
aI40734657
aI42055887
aI58572214
aI65741215
aI145876672
aI313967476
asI17749727
(lp341
I189157
aI3258201
aI5601962
aI5660622
aI9115892
aI11333121
aI12587306
aI20306016
aI49903583
aI53284488
aI136057724
aI190200296
aI196419633
asI12293865
(lp342
I664118
aI701588
aI823179
aI868976
aI881143
aI1174012
aI1213158
aI1723039
aI2724710
aI2749350
aI3272973
aI3365230
aI3503953
aI3771369
aI3958533
aI4250608
aI4403216
aI4649435
aI4870053
aI4932215
aI5126991
aI6041426
aI6279501
aI7102538
aI7937518
aI8027201
aI9006308
aI9337624
aI9422540
aI9749243
aI9937527
aI10032063
aI11656665
aI12100787
aI12288223
aI12695781
aI12821547
aI13260042
aI13563399
aI14419007
aI15440303
aI15860009
aI16665204
aI18006023
aI18312036
aI18322878
aI19364754
aI19579914
aI20347657
aI23369923
aI27924385
aI28601046
aI38492261
aI40930566
aI43670798
aI49028999
aI50299418
aI55065384
aI58611990
aI58819874
aI59385256
aI61758963
aI62861860
aI67616271
aI68793847
aI77303348
aI87076022
aI105211516
aI106637969
aI122111395
aI124491074
aI134506574
aI138591781
aI146831330
aI166942832
aI182308838
asI3776238
(lp343
I189157
aI2528914
aI3258201
aI4005527
aI5289777
aI5601962
aI5660622
aI6453997
aI6874782
aI7227641
aI7659812
aI8859864
aI8968877
aI9115892
aI9372576
aI11333121
aI12587306
aI12729486
aI13271008
aI14470168
aI15058754
aI16363770
aI17331254
aI17797695
aI17940294
aI20306016
aI23369923
aI28199456
aI32614725
aI43639787
aI53284488
aI71774386
aI136057724
aI138591781
aI145876672
aI149111484
aI172903698
aI190200296
aI196419633
asI847599
(lp344
I14616
aI370777
aI477672
aI1764985
aI2375091
aI8090090
aI136964713
aI175861271
asI5740275
(lp345
I802965
aI867582
aI3085883
aI3171461
aI3272973
aI3355127
aI3771369
aI6337282
aI8898445
aI10843436
aI11493685
aI11531487
aI17645989
aI20204808
aI23416977
aI26844369
aI29114306
aI40976682
aI41130644
aI41632399
aI42180880
aI49406612
aI55483095
aI58819874
aI67388399
aI76705031
aI77303348
aI78068394
aI89032013
aI93848406
aI103366032
aI108093680
aI108219695
aI122111395
aI139365724
aI149072396
aI160061102
aI178274601
aI181562984
aI192019818
aI226440450
asI178274601
(lp346
I867582
aI1764985
aI1871958
aI3085883
aI3171461
aI3272973
aI5142174
aI5740275
aI6337282
aI8898445
aI10843436
aI11493685
aI11531487
aI17645989
aI20204808
aI23416977
aI29114306
aI32953418
aI40976682
aI41130644
aI41632399
aI42180880
aI55483095
aI58819874
aI67388399
aI76705031
aI77303348
aI78068394
aI89032013
aI93848406
aI103366032
aI108219695
aI132620494
aI139365724
aI149072396
aI181562984
aI192019818
aI211783327
aI226440450
asI853754
(lp347
I18006023
aI77303348
aI92691655
aI119601700
aI120281856
aI127492149
aI305655700
asI1107242
(lp348
I44843
aI775034
aI1174012
aI1213158
aI1598595
aI1764985
aI4191691
aI4403216
aI4524732
aI8310364
aI9006308
aI14386267
aI17108389
asI15292161
(lp349
I868976
aI4462792
aI4932215
aI8027201
aI58819874
aI138591781
asI3958533
(lp350
I823179
aI868976
aI881143
aI1723039
aI2574116
aI2724710
aI2749350
aI3085883
aI3272973
aI3365230
aI3367292
aI3427306
aI3503953
aI3550880
aI3771369
aI3932904
aI3969942
aI4054594
aI4250608
aI4403216
aI4432381
aI4462792
aI4514007
aI4524732
aI4649435
aI4870053
aI4932215
aI5126991
aI5442351
aI5527490
aI6564065
aI6578008
aI7102538
aI7623749
aI7857693
aI7937518
aI7987592
aI8027201
aI8161055
aI8310364
aI9006308
aI9337624
aI9422540
aI9687459
aI9749243
aI9937527
aI10032063
aI10036756
aI11656665
aI11747688
aI12100787
aI12288223
aI12293865
aI12626651
aI12821547
aI13260042
aI13563399
aI14192742
aI14386267
aI14419007
aI15440303
aI16665204
aI18006023
aI18312036
aI18322878
aI19364754
aI19579914
aI28601046
aI30161112
aI38492261
aI43670798
aI49028999
aI50299418
aI55065384
aI59385256
aI62861860
aI65741215
aI122111395
aI124491074
aI134506574
aI156232210
aI174992765
aI182308838
asI6510344
(lp351
I9457865
aI138591781
asI8593180
(lp352
I3272973
aI3595392
aI12137949
aI15440303
aI77303348
aI185314655
asI2035485
(lp353
I1213158
aI5840047
aI7659812
aI8990515
aI77512594
aI87720115
asI8161055
(lp354
I823179
aI868976
aI2724710
aI2749350
aI3215452
aI3272973
aI3427306
aI3503953
aI3771369
aI3958533
aI3969942
aI4462792
aI4646304
aI4649435
aI4694550
aI4932215
aI5126991
aI5187985
aI5442351
aI6291055
aI6564065
aI6578008
aI7623749
aI7987592
aI9006308
aI10032063
aI11656665
aI11871890
aI12626651
aI14192742
aI18322878
aI23985010
aI49028999
asI2574116
(lp355
I823179
aI1213158
aI2749350
aI3272973
aI3365230
aI3771369
aI3958533
aI3969942
aI4403216
aI4870053
aI5126991
aI7987592
aI9749243
aI9937527
aI10032063
aI11656665
aI12100787
aI14192742
aI15440303
aI18006023
aI19364754
aI20347657
aI28601046
aI40930566
aI49028999
aI50299418
aI122111395
aI124491074
aI212674205
asI44843
(lp356
I12662
aI31300
aI664118
aI775034
aI868976
aI1107242
aI1174012
aI1213158
aI1787388
aI2724710
aI2749350
aI3272973
aI3365230
aI3503953
aI3771369
aI4403216
aI4694550
aI5436168
aI6041426
aI7102538
aI8610956
aI9337624
aI9422540
aI10032063
aI11747688
aI11871890
aI12100787
aI12288223
aI13260042
aI17108389
aI18322878
aI19364754
aI49028999
aI77303348
aI105211516
aI124491074
aI134506574
asI192288556
(lp357
sI5289777
(lp358
I2528914
aI3085883
aI3258201
aI3503953
aI3776238
aI5008415
aI5601962
aI5660622
aI5840047
aI6291055
aI11333121
aI14470168
aI15058754
aI20306016
aI53284488
aI87720115
aI136057724
aI145876672
aI190200296
asI8990515
(lp359
I775034
aI1787388
aI2035485
aI5840047
aI7659812
aI11333121
aI18322878
aI145876672
aI190200296
asI4663095
(lp360
I823179
aI868976
aI881143
aI2749350
aI2955687
aI3194187
aI3503953
aI3550880
aI3771369
aI3969942
aI4054594
aI4058990
aI4250608
aI4403216
aI4462792
aI4524732
aI4932215
aI5126991
aI5527490
aI5586807
aI6564065
aI7423881
aI7857693
aI7987592
aI8310364
aI9006308
aI9156006
aI10036756
aI11656665
aI11747688
aI14192742
aI42055887
asI7196475
(lp361
I4573639
aI6506760
aI6521733
aI7231750
aI8030915
aI8340376
aI8447058
aI18901770
asI96571197
(lp362
sI15058754
(lp363
I3776238
aI5289777
aI11333121
aI53284488
aI136057724
asI17940294
(lp364
I3776238
aI7227641
aI7659812
aI8442243
aI8859864
aI9372576
aI11333121
aI12729486
aI16363770
aI17797695
aI20306016
aI28199456
aI43639787
aI71774386
aI138591781
aI145876672
aI172903698
aI190200296
aI295653413
asI5883723
(lp365
I517119
aI868976
aI1174012
aI4256203
aI4403216
aI5126991
aI5142174
aI5552239
aI18461556
aI30161112
aI174908035
asI3503953
(lp366
I12662
aI44843
aI664118
aI775034
aI823179
aI868976
aI881143
aI1213158
aI1723039
aI1787388
aI2724710
aI2749350
aI2955687
aI3085883
aI3194187
aI3215452
aI3272973
aI3365230
aI3367292
aI3427306
aI3550880
aI3771369
aI3900810
aI3932904
aI3958533
aI3969942
aI4054594
aI4191691
aI4289905
aI4338236
aI4400240
aI4403216
aI4409303
aI4432381
aI4462792
aI4514007
aI4524732
aI4646304
aI4649435
aI4663095
aI4694550
aI4870053
aI4932215
aI4952928
aI5008415
aI5126991
aI5187985
aI5217151
aI5289777
aI5436168
aI5442351
aI5527490
aI5840047
aI6041426
aI6291055
aI6470620
aI6564065
aI6578008
aI6937419
aI7102538
aI7423881
aI7607933
aI7851729
aI7857693
aI7987592
aI8161055
aI8310364
aI9006308
aI9422540
aI9749243
aI10032063
aI11656665
aI11747688
aI12100787
aI12288223
aI12293865
aI12626651
aI14192742
aI14419007
aI14470168
aI15002138
aI17108389
aI17920427
aI18006023
aI18312036
aI18322878
aI23985010
aI32211584
aI36565016
aI38255473
aI42055887
aI43670798
aI49028999
aI54969615
aI55065384
aI62861860
aI114648456
aI124491074
aI134099929
aI134506574
aI156232210
aI313967476
asI6041426
(lp367
I44843
aI517119
aI701588
aI823179
aI868976
aI2749350
aI3085883
aI3272973
aI3365230
aI3367292
aI3503953
aI3771369
aI3900810
aI3969942
aI4054594
aI4338236
aI4403216
aI4432381
aI4462792
aI4514007
aI4524732
aI4649435
aI4694550
aI4870053
aI4932215
aI5008415
aI5126991
aI5187985
aI5436168
aI6279501
aI7867790
aI7986433
aI8310364
aI8610956
aI9006308
aI9337624
aI9422540
aI10036756
aI11656665
aI11747688
aI11871890
aI12100787
aI12288223
aI12293865
aI13563399
aI14192742
aI15440303
aI18006023
aI18312036
aI19364754
aI20347657
aI26844369
aI28601046
aI49028999
aI50299418
aI58611990
aI58819874
aI68793847
aI77303348
aI105211516
aI124491074
aI134506574
aI156232210
aI178848778
asI3819351
(lp368
I2749350
aI6279501
aI11656665
aI12283045
aI138591781
asI3258201
(lp369
I189157
aI3776238
aI5289777
aI5601962
aI5660622
aI6934525
aI9115892
aI12587306
aI17749727
aI20306016
aI53284488
aI136057724
aI196419633
asI11871890
(lp370
I44843
aI823179
aI868976
aI1213158
aI1787388
aI2749350
aI3272973
aI3365230
aI3771369
aI4054594
aI4250608
aI4870053
aI5187985
aI5436168
aI6041426
aI6564065
aI8161055
aI9006308
aI10032063
aI11656665
aI11747688
aI12100787
aI12288223
aI18006023
aI18322878
aI28601046
aI62861860
aI124491074
asI4058990
(lp371
I4054594
aI4250608
aI4426091
aI4524732
aI4663095
aI4932215
aI4952928
aI5126991
aI5527490
aI5586807
aI7102538
aI7857693
aI8310364
aI9006308
aI9156006
aI10032063
aI10036756
aI11747688
aI11759640
aI17920427
asI6066033
(lp372
I192019818
asI5586807
(lp373
I2749350
aI3367292
aI4054594
aI4058990
aI4250608
aI4462792
aI4524732
aI4663095
aI4932215
aI5084239
aI5126991
aI5527490
aI6470620
aI6934525
aI6943490
aI7857693
aI7867790
aI8310364
aI9006308
aI9156006
aI9457865
aI10032063
aI10036756
aI11747688
aI12626651
aI14192742
aI15002138
aI17920427
aI54969615
aI134506574
asI41130644
(lp374
I867582
aI1871958
aI3771369
aI4554266
aI5740275
aI6337282
aI8637963
aI8898445
aI11278906
aI11531487
aI12324233
aI12394895
aI17645989
aI23416977
aI30676970
aI32953418
aI40976682
aI42180880
aI42836825
aI52147892
aI55483095
aI58819874
aI67388399
aI76705031
aI77303348
aI78068394
aI89032013
aI103366032
aI108219695
aI149072396
aI152818311
aI160061102
aI178274601
aI226440450
asI40032128
(lp375
I6506760
aI7231750
aI8340376
aI18901770
asI143677318
(lp376
I77303348
aI119601700
aI120281856
aI127492149
aI156498024
aI258746003
aI305655700
asI49028999
(lp377
I44843
aI775034
aI823179
aI868976
aI881143
aI1598595
aI2574116
aI2749350
aI3215452
aI3272973
aI3365230
aI3427306
aI3503953
aI3771369
aI3958533
aI3969942
aI4250608
aI4403216
aI4649435
aI4870053
aI4932215
aI5126991
aI5227712
aI5442351
aI6041426
aI6337587
aI6564065
aI7102538
aI7623749
aI7913977
aI7987592
aI8161055
aI8310364
aI9006308
aI9337624
aI9422540
aI9687459
aI9749243
aI10032063
aI11656665
aI11747688
aI12100787
aI12288223
aI12293865
aI12821547
aI13260042
aI13563399
aI14192742
aI14386267
aI14419007
aI15440303
aI17108389
aI18006023
aI18312036
aI18322878
aI19364754
aI23985010
aI28601046
aI36565016
aI43670798
aI55065384
aI58611990
aI62861860
aI65741215
aI105211516
aI122111395
aI124491074
aI134506574
aI156232210
asI7423881
(lp378
I823179
aI868976
aI2749350
aI3427306
aI3503953
aI3550880
aI3932904
aI3969942
aI4054594
aI4191691
aI4250608
aI4382085
aI4400240
aI4514007
aI4649435
aI4663095
aI4932215
aI5187985
aI5217151
aI6564065
aI7607933
aI7851729
aI7987592
aI8310364
aI9006308
aI9457865
aI11656665
aI11747688
aI42055887
aI313967476
asI97410954
(lp379
I2434271
aI3814400
aI4324802
aI5736098
aI7081663
aI48868920
asI823179
(lp380
I12662
aI664118
aI868976
aI881143
aI1174012
aI1213158
aI1723039
aI1787388
aI2528914
aI2574116
aI2724710
aI2749350
aI2955687
aI3085883
aI3194187
aI3215452
aI3272973
aI3365230
aI3367292
aI3427306
aI3503953
aI3771369
aI3900810
aI3958533
aI3969942
aI4191691
aI4250608
aI4289905
aI4338236
aI4403216
aI4432381
aI4462792
aI4514007
aI4649435
aI4663095
aI4694550
aI4793841
aI4870053
aI4932215
aI4952928
aI5008415
aI5126991
aI5187985
aI5207688
aI5227712
aI5436168
aI5442351
aI5527490
aI5789202
aI6041426
aI6291055
aI6564065
aI6578008
aI7102538
aI7423881
aI7623749
aI7851729
aI7857693
aI7867790
aI7937518
aI7987592
aI8027201
aI8161055
aI8501936
aI9006308
aI9156006
aI9337624
aI9422540
aI9457865
aI9687459
aI9749243
aI9937527
aI10032063
aI11656665
aI11747688
aI11871890
aI12100787
aI12288223
aI12293865
aI12626651
aI12821547
aI13260042
aI13563399
aI14192742
aI14386267
aI14419007
aI15002138
aI15860009
aI16665204
aI18006023
aI18312036
aI19176414
aI19364754
aI19579914
aI20347657
aI23985010
aI27924385
aI28601046
aI33732565
aI36279687
aI36565016
aI38255473
aI38492261
aI40930566
aI44891108
aI49028999
aI50299418
aI53803950
aI54797773
aI55065384
aI58314153
aI58611990
aI59385256
aI61758963
aI62861860
aI65741215
aI67616271
aI68793847
aI87076022
aI104102812
aI106637969
aI117558258
aI122111395
aI124491074
aI138379233
aI139080472
aI141125660
aI146831330
aI156232210
aI169168450
aI174992765
aI182308838
aI186648161
aI207210135
aI241090828
aI313967476
asI8898445
(lp381
I867582
aI1871958
aI3171461
aI3272973
aI3771369
aI5740275
aI6337282
aI8637963
aI10843436
aI11493685
aI11531487
aI12324233
aI17645989
aI20204808
aI23416977
aI26844369
aI29114306
aI32953418
aI40976682
aI41130644
aI42180880
aI42836825
aI49406612
aI52147892
aI55483095
aI58819874
aI76705031
aI78068394
aI89032013
aI93848406
aI103366032
aI108219695
aI139365724
aI149072396
aI178274601
aI179179412
aI181224253
aI181562984
aI192019818
aI226440450
asI77512594
(lp382
I2035485
aI3401103
aI4952928
aI5840047
aI6291055
aI7659812
aI9372576
asI179179412
(lp383
I8898445
aI23416977
aI40976682
aI42836825
aI78068394
aI149072396
aI181224253
asI6008731
(lp384
I175573457
asI27924385
(lp385
I823179
aI881143
aI1723039
aI2724710
aI2749350
aI3365230
aI3771369
aI4870053
aI5126991
aI6564065
aI9006308
aI9337624
aI9937527
aI12288223
aI12293865
aI12821547
aI13260042
aI13563399
aI14386267
aI14419007
aI16665204
aI18006023
aI19176414
aI19364754
aI19579914
aI20347657
aI28601046
aI38492261
aI40930566
aI43670798
aI54797773
aI61758963
aI68793847
aI106637969
aI169168450
aI241090828
asI4870053
(lp386
I664118
aI823179
aI868976
aI881143
aI1174012
aI1213158
aI1723039
aI1787388
aI2528914
aI2574116
aI2724710
aI2749350
aI3272973
aI3365230
aI3503953
aI3771369
aI3958533
aI4246065
aI4250608
aI4403216
aI4649435
aI4793841
aI4932215
aI5126991
aI6041426
aI6279501
aI6453997
aI6564065
aI7102538
aI7623749
aI7937518
aI7987592
aI8027201
aI9006308
aI9337624
aI9422540
aI9687459
aI9749243
aI9937527
aI10032063
aI11656665
aI11871890
aI12100787
aI12288223
aI12293865
aI12821547
aI13563399
aI14192742
aI14386267
aI14419007
aI15440303
aI16665204
aI17097306
aI18006023
aI18312036
aI18322878
aI19176414
aI19364754
aI19579914
aI20347657
aI27924385
aI28601046
aI32614725
aI38492261
aI43670798
aI44891108
aI49028999
aI50299418
aI53796935
aI55065384
aI58611990
aI58819874
aI59385256
aI61758963
aI62861860
aI67616271
aI68793847
aI77303348
aI104102812
aI106637969
aI122111395
aI124491074
aI134506574
aI139080472
aI145876672
aI146831330
aI166942832
aI207210135
aI241090828
asI6874782
(lp387
I3776238
aI5346807
aI6453997
aI9372576
aI23369923
aI71774386
aI145876672
aI149111484
asI40734657
(lp388
I6453997
aI7227641
aI7851729
aI8442243
aI12695781
aI13271008
aI14470168
aI17331254
aI22432647
aI25561821
aI32614725
aI41621015
aI149111484
asI5527490
(lp389
I823179
aI2749350
aI3085883
aI3272973
aI3367292
aI3503953
aI3550880
aI3958533
aI3969942
aI4054594
aI4058990
aI4191691
aI4382085
aI4409303
aI4514007
aI4524732
aI4649435
aI4663095
aI4952928
aI5008415
aI5084239
aI5126991
aI5442351
aI5586807
aI6470620
aI6934525
aI7607933
aI7623749
aI7851729
aI7857693
aI7987592
aI8310364
aI9156006
aI9457865
aI9687459
aI12626651
aI17920427
aI23985010
aI55065384
aI58611990
aI65741215
aI134099929
aI156232210
aI313967476
asI5660622
(lp390
I189157
aI818307
aI3258201
aI3370622
aI3776238
aI5289777
aI5601962
aI6934525
aI9115892
aI11333121
aI12587306
aI17749727
aI20306016
aI49903583
aI53284488
aI136057724
aI190200296
aI196419633
asI33732565
(lp391
I823179
aI11656665
aI15860009
aI28601046
aI61758963
aI87076022
aI138379233
asI3888786
(lp392
I254162
aI3814400
aI244556803
asI49903583
(lp393
I189157
aI3814400
aI5601962
aI5660622
aI12587306
aI17749727
aI53284488
aI196419633
asI13271008
(lp394
I299356
aI2528914
aI3776238
aI5008415
aI6453997
aI7227641
aI7659812
aI8442243
aI11333121
aI12695781
aI14470168
aI20306016
aI22432647
aI23369923
aI28199456
aI32614725
aI35779414
aI40734657
aI46611076
aI58572214
aI138591781
aI145876672
aI149111484
asI138379233
(lp395
I823179
aI881143
aI1787388
aI4250608
aI4932215
aI9337624
aI12100787
aI13563399
aI14386267
aI18006023
aI19579914
aI20347657
aI28601046
aI33732565
aI40930566
aI43670798
aI44891108
aI61758963
aI62861860
aI68793847
aI104102812
aI106637969
aI124491074
aI139080472
aI146831330
aI169168450
aI207210135
aI241090828
aI257376576
asI146831330
(lp396
I664118
aI701588
aI823179
aI881143
aI1213158
aI2749350
aI3272973
aI3771369
aI4403216
aI4870053
aI4932215
aI6279501
aI7937518
aI8610956
aI9337624
aI9422540
aI9937527
aI11656665
aI12100787
aI12293865
aI12821547
aI13563399
aI14386267
aI15440303
aI16665204
aI18006023
aI19364754
aI19579914
aI20347657
aI28601046
aI38255473
aI40930566
aI43670798
aI44891108
aI50299418
aI58819874
aI61758963
aI62861860
aI68793847
aI77303348
aI87076022
aI104102812
aI124491074
aI138379233
aI139080472
aI166942832
aI186648161
aI257376576
asI182308838
(lp397
I823179
aI881143
aI3272973
aI3771369
aI3958533
aI4403216
aI6564065
aI7102538
aI9006308
aI9337624
aI9749243
aI9937527
aI10032063
aI11656665
aI12100787
aI12288223
aI12293865
aI13563399
aI14386267
aI15860009
aI19364754
aI28601046
aI44891108
aI58314153
aI61758963
aI62861860
aI87076022
aI104102812
aI106637969
aI124491074
aI139080472
aI145136254
aI166942832
aI186648161
aI207210135
asI30676970
(lp398
I160173
aI1723039
aI1764985
aI3365230
aI4726252
aI5142174
aI8090090
aI8637963
aI11278906
aI12324233
aI12394895
aI23416977
aI40976682
aI41130644
aI52147892
aI78068394
aI89032013
asI6934525
(lp399
I189157
aI3194187
aI3258201
aI3367292
aI3550880
aI4400240
aI4409303
aI4426091
aI4524732
aI4646304
aI4649435
aI4694550
aI4952928
aI5008415
aI5442351
aI5527490
aI5586807
aI5601962
aI5660622
aI5789202
aI6470620
aI7607933
aI7851729
aI7857693
aI7987592
aI9457865
aI12587306
aI12626651
aI15002138
aI17920427
aI42055887
aI65741215
aI114648456
aI134099929
aI156232210
asI78068394
(lp400
I160173
aI867582
aI3171461
aI3272973
aI3771369
aI4554266
aI5740275
aI6337282
aI8637963
aI8898445
aI11278906
aI11531487
aI12394895
aI17645989
aI23416977
aI29114306
aI30676970
aI32953418
aI40048366
aI40976682
aI41130644
aI42180880
aI42836825
aI52147892
aI55483095
aI58819874
aI67388399
aI77303348
aI89032013
aI93848406
aI103366032
aI108219695
aI132620494
aI149072396
aI152818311
aI160061102
aI178274601
aI179179412
aI181224253
aI181287161
aI226440450
as.